MPASM  5.45                               A.S   12-14-2013  13:28:34         PAGE  1


LOC  OBJECT CODE     LINE SOURCE TEXT
  VALUE


                      00002         list
                      00003 ;{
                      00004 ;FILE F1 = C:\PROJELER\TRANSPONDER_YENICALISMA\TRANSPONDER.BAS
                      00005 ;FILE F2 = C:\PROJELER\TRANSPONDER_YENICALISMA\TRANSPONDER.PRP
                      00006 ;}
                      00007 ;[Variable Listing]
                      00008 ;TRANSPONDER_MODE,0013,DT_BYTE,1
                      00009 ;TR_MD,0014,DT_BYTE,1
                      00010 ;FREK1,0015,DT_WORD,2
                      00011 ;FREK2,0017,DT_WORD,2
                      00012 ;STP,0019,DT_WORD,2
                      00013 ;REF,001B,DT_WORD,2
                      00014 ;A,001D,DT_WORD,2
                      00015 ;N,001F,DT_WORD,2
                      00016 ;R,0021,DT_WORD,2
                      00017 ;X,0023,DT_WORD,2
                      00018 ;PRE,0025,DT_BYTE,1
                      00019 ;PRE2,0026,DT_BYTE,1
                      00020 ;DataOut,0027,DT_DWORD,4
                      00021 ;sayac,002B,DT_BYTE,1
                      00022 ;SaniyeBekle,002C,DT_BYTE,1
                      00023 ;TPS_Akim,002D,DT_WORD,2
                      00024 ;Pwm_val,002F,DT_BYTE,1
                      00025 ;Cikis_Gucu,0030,DT_WORD,2
                      00026 ;uS,0032,DT_WORD,2
                      00027 ;mS,0034,DT_WORD,2
                      00028 ;S,0036,DT_WORD,2
                      00029 ;mn,0038,DT_BYTE,1
                      00030 ;hr,0039,DT_BYTE,1
                      00031 ;dy,003A,DT_BYTE,1
                      00032 ;DataIn,003B,DT_BYTE,1
                      00033 ;LastData,003C,DT_BYTE,1
                      00034 ;Slave_Address,003D,DT_BYTE,1
                      00035 ;I2C_Data,003E,DT_BYTE,10
                      00036 ;I2C_DataCount,0048,DT_BYTE,1
                      00037 ;STATE_INFO,0049,DT_BYTE,1
                      00038 ;RESPONSE,004A,DT_BYTE,1
                      00039 ;DURUM,004B,DT_BYTE,1
                      00040 ;DutyCycle,004D,DT_BYTE,1
                      00041 ;say,004E,DT_BYTE,1
                      00042 ;_High__Context_Store,004F,DT_BYTE,4
                      00043 ;AGC8317in,0F80.1,DT_BIT
                      00044 ;ACS714_5V,0F80.2,DT_BIT
                      00045 ;pllLD,0F80.3,DT_BIT
                      00046 ;TPS2421en,0F80.4,DT_BIT
                      00047 ;PWRled,0F80.5,DT_BIT
                      00048 ;mySCL2,0F81.1,DT_BIT
                      00049 ;mySDA2,0F81.2,DT_BIT
                      00050 ;pllCLK,0F81.3,DT_BIT
                      00051 ;pllDATA,0F81.4,DT_BIT
                      00052 ;pllLE,0F81.5,DT_BIT
                      00053 ;pllPSRF,0F81.6,DT_BIT
MPASM  5.45                               A.S   12-14-2013  13:28:34         PAGE  2


LOC  OBJECT CODE     LINE SOURCE TEXT
  VALUE

                      00054 ;pllPSIF,0F81.7,DT_BIT
                      00055 ;LD29300enable,0F82.0,DT_BIT
                      00056 ;TPS3823WDI,0F82.1,DT_BIT
                      00057 ;AD8317AGCset,0F82.2,DT_BIT
                      00058 ;mySCL1,0F82.3,DT_BIT
                      00059 ;mySDA1,0F82.4,DT_BIT
                      00060 ;AD8317final,0F82.7,DT_BIT
                      00061 ;GIE,0FF2.7,DT_BIT
                      00062 ;Timer1,0FCE,DT_WORD,2
                      00063 ;Timer1H,0FCF,DT_BYTE,1
                      00064 ;TMR1_Enable,0F9D.0,DT_BIT
                      00065 ;TMR1_Overflow,0F9E.0,DT_BIT
                      00066 ;TMR1_On,0FCD.0,DT_BIT
                      00067 ;SSPIF,0F9E.3,DT_BIT
                      00068 ;SSPIP,0F9F.3,DT_BIT
                      00069 ;SSPIE,0F9D.3,DT_BIT
                      00070 ;BF,0FC7.0,DT_BIT
                      00071 ;R_W,0FC7.2,DT_BIT
                      00072 ;D_A,0FC7.5,DT_BIT
                      00073 ;CKP,0FC6.4,DT_BIT
                      00074 ;SSPEN,0FC6.5,DT_BIT
                      00075 ;SSPOV,0FC6.6,DT_BIT
                      00076 ;WCOL,0FC6.7,DT_BIT
                      00077 ;SMP,0FC7.7,DT_BIT
                      00078 ;SEN,0FC5.0,DT_BIT
                      00079 ;AHEN,0FCB.1,DT_BIT
                      00080 ;PEIE,0FF2.6,DT_BIT
                      00081 ;pllyaz_latch,004C.0,DT_BIT
                      00082 ;[End Listing]
                      00083 ;[TOTAL VARS] 82

                      00085 #define CONFIG_REQ 1
MESSAGE[308]: WARNING LEVEL SUPERSEDED BY COMMAND LINE VALUE. (2)
                      00086  LIST  P = 18F24K22, F = INHX32, W = 2, X = ON, R = DEC, MM = ON, N = 0, C = 255, T=ON
  00000F38            00087 ANSELA equ 0X0F38
  00000F39            00088 ANSELB equ 0X0F39
  00000F3A            00089 ANSELC equ 0X0F3A
  00000F3D            00090 PMD2 equ 0X0F3D
  00000F3E            00091 PMD1 equ 0X0F3E
  00000F3F            00092 PMD0 equ 0X0F3F
  00000F40            00093 DACCON1 equ 0X0F40
  00000F40            00094 VREFCON2 equ 0X0F40
  00000F41            00095 DACCON0 equ 0X0F41
  00000F41            00096 VREFCON1 equ 0X0F41
  00000F42            00097 FVRCON equ 0X0F42
  00000F42            00098 VREFCON0 equ 0X0F42
  00000F43            00099 CTMUICON equ 0X0F43
  00000F43            00100 CTMUICONH equ 0X0F43
  00000F44            00101 CTMUCON1 equ 0X0F44
  00000F44            00102 CTMUCONL equ 0X0F44
  00000F45            00103 CTMUCON0 equ 0X0F45
  00000F45            00104 CTMUCONH equ 0X0F45
  00000F45            00105 CTMUCONLH equ 0X0F45
  00000F46            00106 SRCON1 equ 0X0F46
  00000F47            00107 SRCON0 equ 0X0F47
  00000F48            00108 CCPTMRS1 equ 0X0F48
  00000F49            00109 CCPTMRS0 equ 0X0F49
  00000F4A            00110 T6CON equ 0X0F4A
  00000F4B            00111 PR6 equ 0X0F4B
  00000F4C            00112 TMR6 equ 0X0F4C
  00000F4D            00113 T5GCON equ 0X0F4D
  00000F4E            00114 T5CON equ 0X0F4E
  00000F4F            00115 TMR5 equ 0X0F4F
  00000F4F            00116 TMR5L equ 0X0F4F
  00000F50            00117 TMR5LH equ 0X0F50
  00000F50            00118 TMR5H equ 0X0F50
  00000F51            00119 T4CON equ 0X0F51
  00000F52            00120 PR4 equ 0X0F52
  00000F53            00121 TMR4 equ 0X0F53
  00000F54            00122 CCP5CON equ 0X0F54
  00000F55            00123 CCPR5 equ 0X0F55
  00000F55            00124 CCPR5L equ 0X0F55
  00000F56            00125 CCPR5LH equ 0X0F56
  00000F56            00126 CCPR5H equ 0X0F56
  00000F57            00127 CCP4CON equ 0X0F57
  00000F58            00128 CCPR4 equ 0X0F58
  00000F58            00129 CCPR4L equ 0X0F58
  00000F59            00130 CCPR4LH equ 0X0F59
  00000F59            00131 CCPR4H equ 0X0F59
  00000F5A            00132 PSTR3CON equ 0X0F5A
  00000F5B            00133 CCP3AS equ 0X0F5B
  00000F5B            00134 ECCP3AS equ 0X0F5B
  00000F5C            00135 PWM3CON equ 0X0F5C
  00000F5D            00136 CCP3CON equ 0X0F5D
  00000F5E            00137 CCPR3 equ 0X0F5E
  00000F5E            00138 CCPR3L equ 0X0F5E
  00000F5F            00139 CCPR3LH equ 0X0F5F
  00000F5F            00140 CCPR3H equ 0X0F5F
  00000F60            00141 SLRCON equ 0X0F60
  00000F61            00142 WPUB equ 0X0F61
  00000F62            00143 IOCB equ 0X0F62
  00000F63            00144 PSTR2CON equ 0X0F63
  00000F64            00145 CCP2AS equ 0X0F64
  00000F64            00146 ECCP2AS equ 0X0F64
  00000F65            00147 PWM2CON equ 0X0F65
  00000F66            00148 CCP2CON equ 0X0F66
  00000F67            00149 CCPR2 equ 0X0F67
  00000F67            00150 CCPR2L equ 0X0F67
  00000F68            00151 CCPR2LH equ 0X0F68
  00000F68            00152 CCPR2H equ 0X0F68
  00000F69            00153 SSP2CON3 equ 0X0F69
  00000F6A            00154 SSP2MSK equ 0X0F6A
  00000F6B            00155 SSP2CON2 equ 0X0F6B
  00000F6C            00156 SSP2CON1 equ 0X0F6C
  00000F6D            00157 SSP2STAT equ 0X0F6D
  00000F6E            00158 SSP2ADD equ 0X0F6E
  00000F6F            00159 SSP2BUF equ 0X0F6F
  00000F70            00160 BAUD2CON equ 0X0F70
  00000F70            00161 BAUDCON2 equ 0X0F70
  00000F71            00162 RC2STA equ 0X0F71
  00000F71            00163 RCSTA2 equ 0X0F71
  00000F72            00164 TX2STA equ 0X0F72
  00000F72            00165 TXSTA2 equ 0X0F72
  00000F73            00166 TX2REG equ 0X0F73
  00000F73            00167 TXREG2 equ 0X0F73
  00000F74            00168 RC2REG equ 0X0F74
  00000F74            00169 RCREG2 equ 0X0F74
  00000F75            00170 SP2BRG equ 0X0F75
  00000F75            00171 SPBRG2 equ 0X0F75
  00000F76            00172 SP2BRGH equ 0X0F76
  00000F76            00173 SPBRG2H equ 0X0F76
  00000F76            00174 SPBRGH2 equ 0X0F76
  00000F77            00175 CM12CON equ 0X0F77
  00000F77            00176 CM2CON1 equ 0X0F77
  00000F78            00177 CM2CON equ 0X0F78
  00000F78            00178 CM2CON0 equ 0X0F78
  00000F79            00179 CM1CON equ 0X0F79
  00000F79            00180 CM1CON0 equ 0X0F79
  00000F7A            00181 PIE4 equ 0X0F7A
  00000F7B            00182 PIR4 equ 0X0F7B
  00000F7C            00183 IPR4 equ 0X0F7C
  00000F7D            00184 PIE5 equ 0X0F7D
  00000F7E            00185 PIR5 equ 0X0F7E
  00000F7F            00186 IPR5 equ 0X0F7F
  00000F80            00187 PORTA equ 0X0F80
  00000F81            00188 PORTB equ 0X0F81
  00000F82            00189 PORTC equ 0X0F82
  00000F84            00190 PORTE equ 0X0F84
  00000F89            00191 LATA equ 0X0F89
  00000F8A            00192 LATB equ 0X0F8A
  00000F8B            00193 LATC equ 0X0F8B
  00000F92            00194 DDRA equ 0X0F92
  00000F92            00195 TRISA equ 0X0F92
  00000F93            00196 DDRB equ 0X0F93
  00000F93            00197 TRISB equ 0X0F93
  00000F94            00198 DDRC equ 0X0F94
  00000F94            00199 TRISC equ 0X0F94
  00000F96            00200 TRISE equ 0X0F96
  00000F9B            00201 OSCTUNE equ 0X0F9B
  00000F9C            00202 HLVDCON equ 0X0F9C
  00000F9C            00203 LVDCON equ 0X0F9C
  00000F9D            00204 PIE1 equ 0X0F9D
  00000F9E            00205 PIR1 equ 0X0F9E
  00000F9F            00206 IPR1 equ 0X0F9F
  00000FA0            00207 PIE2 equ 0X0FA0
  00000FA1            00208 PIR2 equ 0X0FA1
  00000FA2            00209 IPR2 equ 0X0FA2
  00000FA3            00210 PIE3 equ 0X0FA3
  00000FA4            00211 PIR3 equ 0X0FA4
  00000FA5            00212 IPR3 equ 0X0FA5
  00000FA6            00213 EECON1 equ 0X0FA6
  00000FA7            00214 EECON2 equ 0X0FA7
  00000FA8            00215 EEDATL equ 0X0FA8
  00000FA8            00216 EEDATA equ 0X0FA8
  00000FA9            00217 EEADR equ 0X0FA9
  00000FAA            00218 EEADRH equ 0X0FAA
  00000FAB            00219 RC1STA equ 0X0FAB
  00000FAB            00220 RCSTA equ 0X0FAB
  00000FAB            00221 RCSTA1 equ 0X0FAB
  00000FAC            00222 TX1STA equ 0X0FAC
  00000FAC            00223 TXSTA equ 0X0FAC
  00000FAC            00224 TXSTA1 equ 0X0FAC
  00000FAD            00225 TX1REG equ 0X0FAD
  00000FAD            00226 TXREG equ 0X0FAD
  00000FAD            00227 TXREG1 equ 0X0FAD
  00000FAE            00228 RC1REG equ 0X0FAE
  00000FAE            00229 RCREG equ 0X0FAE
  00000FAE            00230 RCREG1 equ 0X0FAE
  00000FAF            00231 SP1BRG equ 0X0FAF
  00000FAF            00232 SPBRG equ 0X0FAF
  00000FAF            00233 SPBRG1 equ 0X0FAF
  00000FB0            00234 SP1BRGH equ 0X0FB0
  00000FB0            00235 SPBRGH equ 0X0FB0
  00000FB0            00236 SPBRG1H equ 0X0FB0
  00000FB0            00237 SPBRGH1 equ 0X0FB0
  00000FB1            00238 T3CON equ 0X0FB1
  00000FB2            00239 TMR3L equ 0X0FB2
  00000FB3            00240 TMR3LH equ 0X0FB3
  00000FB3            00241 TMR3H equ 0X0FB3
  00000FB4            00242 T3GCON equ 0X0FB4
  00000FB6            00243 ECCP1AS equ 0X0FB6
  00000FB6            00244 ECCPAS equ 0X0FB6
  00000FB7            00245 PWM1CON equ 0X0FB7
  00000FB7            00246 PWMCON equ 0X0FB7
  00000FB8            00247 BAUD1CON equ 0X0FB8
  00000FB8            00248 BAUDCON equ 0X0FB8
  00000FB8            00249 BAUDCON1 equ 0X0FB8
  00000FB8            00250 BAUDCTL equ 0X0FB8
  00000FB9            00251 PSTR1CON equ 0X0FB9
  00000FB9            00252 PSTRCON equ 0X0FB9
  00000FBA            00253 T2CON equ 0X0FBA
  00000FBB            00254 PR2 equ 0X0FBB
  00000FBC            00255 TMR2 equ 0X0FBC
  00000FBD            00256 CCP1CON equ 0X0FBD
  00000FBE            00257 CCPR1 equ 0X0FBE
  00000FBE            00258 CCPR1L equ 0X0FBE
  00000FBF            00259 CCPR1LH equ 0X0FBF
  00000FBF            00260 CCPR1H equ 0X0FBF
  00000FC0            00261 ADCON2 equ 0X0FC0
  00000FC1            00262 ADCON1 equ 0X0FC1
  00000FC2            00263 ADCON0 equ 0X0FC2
  00000FC3            00264 ADRES equ 0X0FC3
  00000FC3            00265 ADRESL equ 0X0FC3
  00000FC4            00266 ADRESLH equ 0X0FC4
  00000FC4            00267 ADRESH equ 0X0FC4
  00000FC5            00268 SSP1CON2 equ 0X0FC5
  00000FC5            00269 SSPCON2 equ 0X0FC5
  00000FC6            00270 SSP1CON1 equ 0X0FC6
  00000FC6            00271 SSPCON1 equ 0X0FC6
  00000FC7            00272 SSP1STAT equ 0X0FC7
  00000FC7            00273 SSPSTAT equ 0X0FC7
  00000FC8            00274 SSP1ADD equ 0X0FC8
  00000FC8            00275 SSPADD equ 0X0FC8
  00000FC9            00276 SSP1BUF equ 0X0FC9
  00000FC9            00277 SSPBUF equ 0X0FC9
  00000FCA            00278 SSP1MSK equ 0X0FCA
  00000FCA            00279 SSPMSK equ 0X0FCA
  00000FCB            00280 SSP1CON3 equ 0X0FCB
  00000FCB            00281 SSPCON3 equ 0X0FCB
  00000FCC            00282 T1GCON equ 0X0FCC
  00000FCD            00283 T1CON equ 0X0FCD
  00000FCE            00284 TMR1L equ 0X0FCE
  00000FCF            00285 TMR1LH equ 0X0FCF
  00000FCF            00286 TMR1H equ 0X0FCF
  00000FD0            00287 RCON equ 0X0FD0
  00000FD1            00288 WDTCON equ 0X0FD1
  00000FD2            00289 OSCCON2 equ 0X0FD2
  00000FD3            00290 OSCCON equ 0X0FD3
  00000FD5            00291 T0CON equ 0X0FD5
  00000FD6            00292 TMR0L equ 0X0FD6
  00000FD7            00293 TMR0LH equ 0X0FD7
  00000FD7            00294 TMR0H equ 0X0FD7
  00000FD8            00295 STATUS equ 0X0FD8
  00000FD9            00296 FSR2L equ 0X0FD9
  00000FDA            00297 FSR2LH equ 0X0FDA
  00000FDA            00298 FSR2H equ 0X0FDA
  00000FDB            00299 PLUSW2 equ 0X0FDB
  00000FDC            00300 PREINC2 equ 0X0FDC
  00000FDD            00301 POSTDEC2 equ 0X0FDD
  00000FDE            00302 POSTINC2 equ 0X0FDE
  00000FDF            00303 INDF2 equ 0X0FDF
  00000FE0            00304 BSR equ 0X0FE0
  00000FE1            00305 FSR1L equ 0X0FE1
  00000FE2            00306 FSR1LH equ 0X0FE2
  00000FE2            00307 FSR1H equ 0X0FE2
  00000FE3            00308 PLUSW1 equ 0X0FE3
  00000FE4            00309 PREINC1 equ 0X0FE4
  00000FE5            00310 POSTDEC1 equ 0X0FE5
  00000FE6            00311 POSTINC1 equ 0X0FE6
  00000FE7            00312 INDF1 equ 0X0FE7
  00000FE8            00313 WREG equ 0X0FE8
  00000FE9            00314 FSR0L equ 0X0FE9
  00000FEA            00315 FSR0LH equ 0X0FEA
  00000FEA            00316 FSR0H equ 0X0FEA
  00000FEB            00317 PLUSW0 equ 0X0FEB
  00000FEC            00318 PREINC0 equ 0X0FEC
  00000FED            00319 POSTDEC0 equ 0X0FED
  00000FEE            00320 POSTINC0 equ 0X0FEE
  00000FEF            00321 INDF0 equ 0X0FEF
  00000FF0            00322 INTCON3 equ 0X0FF0
  00000FF1            00323 INTCON2 equ 0X0FF1
  00000FF2            00324 INTCON equ 0X0FF2
  00000FF3            00325 PRODL equ 0X0FF3
  00000FF4            00326 PRODLH equ 0X0FF4
  00000FF4            00327 PRODH equ 0X0FF4
  00000FF5            00328 TABLAT equ 0X0FF5
  00000FF6            00329 TBLPTRL equ 0X0FF6
  00000FF7            00330 TBLPTRLH equ 0X0FF7
  00000FF7            00331 TBLPTRH equ 0X0FF7
  00000FF8            00332 TBLPTRLHH equ 0X0FF8
  00000FE8            00333 TBLPTRLHHH equ 0X0FE8
  00000FF8            00334 TBLPTRU equ 0X0FF8
  00000FF9            00335 PC equ 0X0FF9
  00000FF9            00336 PCL equ 0X0FF9
  00000FFA            00337 PCLATH equ 0X0FFA
  00000FFB            00338 PCLATU equ 0X0FFB
  00000FFC            00339 STKPTR equ 0X0FFC
  00000FFD            00340 TOSL equ 0X0FFD
  00000FFE            00341 TOSLH equ 0X0FFE
  00000FFE            00342 TOSH equ 0X0FFE
  00000FFF            00343 TOSU equ 0X0FFF
  00000F94            00344 _I2C_SDA_PORT=TRISC
  00000004            00345 _I2C_SDA_PIN=4
  00000F94            00346 _I2C_SCL_PORT=TRISC
  00000003            00347 _I2C_SCL_PIN=3
  00000000            00348 ANSA0=0
  00000001            00349 ANSA1=1
  00000002            00350 ANSA2=2
  00000003            00351 ANSA3=3
  00000005            00352 ANSA5=5
  00000000            00353 ANSB0=0
  00000001            00354 ANSB1=1
  00000002            00355 ANSB2=2
  00000003            00356 ANSB3=3
  00000004            00357 ANSB4=4
  00000005            00358 ANSB5=5
  00000002            00359 ANSC2=2
  00000003            00360 ANSC3=3
  00000004            00361 ANSC4=4
  00000005            00362 ANSC5=5
  00000006            00363 ANSC6=6
  00000007            00364 ANSC7=7
  00000000            00365 ADCMD=0
  00000001            00366 CMP1MD=1
  00000002            00367 CMP2MD=2
  00000003            00368 CTMUMD=3
  00000000            00369 CCP1MD=0
  00000001            00370 CCP2MD=1
  00000002            00371 CCP3MD=2
  00000003            00372 CCP4MD=3
  00000004            00373 CCP5MD=4
  00000006            00374 MSSP1MD=6
  00000007            00375 MSSP2MD=7
  00000000            00376 TMR1MD=0
  00000001            00377 TMR2MD=1
  00000002            00378 TMR3MD=2
  00000003            00379 TMR4MD=3
  00000004            00380 TMR5MD=4
  00000005            00381 TMR6MD=5
  00000006            00382 UART1MD=6
  00000007            00383 UART2MD=7
  00000000            00384 DACR0=0
  00000001            00385 DACR1=1
  00000002            00386 DACR2=2
  00000003            00387 DACR3=3
  00000004            00388 DACR4=4
  00000000            00389 DACR0=0
  00000001            00390 DACR1=1
  00000002            00391 DACR2=2
  00000003            00392 DACR3=3
  00000004            00393 DACR4=4
  00000000            00394 DACNSS=0
  00000005            00395 DACOE=5
  00000006            00396 DACLPS=6
  00000007            00397 DACEN=7
  00000002            00398 DACPSS0=2
  00000003            00399 DACPSS1=3
  00000000            00400 DACNSS=0
  00000005            00401 DACOE=5
  00000006            00402 DACLPS=6
  00000007            00403 DACEN=7
  00000002            00404 DACPSS0=2
  00000003            00405 DACPSS1=3
  00000006            00406 FVRST=6
  00000007            00407 FVREN=7
  00000004            00408 FVRS0=4
  00000005            00409 FVRS1=5
  00000006            00410 FVRST=6
  00000007            00411 FVREN=7
  00000004            00412 FVRS0=4
  00000005            00413 FVRS1=5
  00000000            00414 IRNG0=0
  00000001            00415 IRNG1=1
  00000002            00416 ITRIM0=2
  00000003            00417 ITRIM1=3
  00000004            00418 ITRIM2=4
  00000005            00419 ITRIM3=5
  00000006            00420 ITRIM4=6
  00000007            00421 ITRIM5=7
  00000000            00422 IRNG0=0
  00000001            00423 IRNG1=1
  00000002            00424 ITRIM0=2
  00000003            00425 ITRIM1=3
  00000004            00426 ITRIM2=4
  00000005            00427 ITRIM3=5
  00000006            00428 ITRIM4=6
  00000007            00429 ITRIM5=7
  00000000            00430 EDG1STAT=0
  00000001            00431 EDG2STAT=1
  00000004            00432 EDG1POL=4
  00000007            00433 EDG2POL=7
  00000002            00434 EDG1SEL0=2
  00000003            00435 EDG1SEL1=3
  00000005            00436 EDG2SEL0=5
  00000006            00437 EDG2SEL1=6
  00000000            00438 EDG1STAT=0
  00000001            00439 EDG2STAT=1
  00000004            00440 EDG1POL=4
  00000007            00441 EDG2POL=7
  00000002            00442 EDG1SEL0=2
  00000003            00443 EDG1SEL1=3
  00000005            00444 EDG2SEL0=5
  00000006            00445 EDG2SEL1=6
  00000000            00446 CTTRIG=0
  00000001            00447 IDISSEN=1
  00000002            00448 EDGSEQEN=2
  00000003            00449 EDGEN=3
  00000004            00450 TGEN=4
  00000005            00451 CTMUSIDL=5
  00000007            00452 CTMUEN=7
  00000000            00453 CTTRIG=0
  00000001            00454 IDISSEN=1
  00000002            00455 EDGSEQEN=2
  00000003            00456 EDGEN=3
  00000004            00457 TGEN=4
  00000005            00458 CTMUSIDL=5
  00000007            00459 CTMUEN=7
  00000000            00460 SRRC1E=0
  00000001            00461 SRRC2E=1
  00000002            00462 SRRCKE=2
  00000003            00463 SRRPE=3
  00000004            00464 SRSC1E=4
  00000005            00465 SRSC2E=5
  00000006            00466 SRSCKE=6
  00000007            00467 SRSPE=7
  00000000            00468 SRPR=0
  00000001            00469 SRPS=1
  00000002            00470 SRNQEN=2
  00000003            00471 SRQEN=3
  00000007            00472 SRLEN=7
  00000004            00473 SRCLK0=4
  00000005            00474 SRCLK1=5
  00000006            00475 SRCLK2=6
  00000000            00476 C4TSEL0=0
  00000001            00477 C4TSEL1=1
  00000002            00478 C5TSEL0=2
  00000003            00479 C5TSEL1=3
  00000000            00480 C1TSEL0=0
  00000001            00481 C1TSEL1=1
  00000003            00482 C2TSEL0=3
  00000004            00483 C2TSEL1=4
  00000006            00484 C3TSEL0=6
  00000007            00485 C3TSEL1=7
  00000002            00486 TMR6ON=2
  00000000            00487 T6CKPS0=0
  00000001            00488 T6CKPS1=1
  00000003            00489 T6OUTPS0=3
  00000004            00490 T6OUTPS1=4
  00000005            00491 T6OUTPS2=5
  00000006            00492 T6OUTPS3=6
  00000002            00493 T5GVAL=2
  00000003            00494 T5GGO_NOT_DONE=3
  00000004            00495 T5GSPM=4
  00000005            00496 T5GTM=5
  00000006            00497 T5GPOL=6
  00000007            00498 TMR5GE=7
  00000000            00499 T5GSS0=0
  00000001            00500 T5GSS1=1
  00000003            00501 T5GGO=3
  00000003            00502 T5G_DONE=3
  00000000            00503 TMR5ON=0
  00000001            00504 T5RD16=1
  00000002            00505 NOT_T5SYNC=2
  00000003            00506 T5SOSCEN=3
  00000002            00507 T5SYNC=2
  00000004            00508 T5CKPS0=4
  00000005            00509 T5CKPS1=5
  00000006            00510 TMR5CS0=6
  00000007            00511 TMR5CS1=7
  00000002            00512 TMR4ON=2
  00000002            00513 PP_TMR4ON=2
  00000000            00514 T4CKPS0=0
  00000001            00515 T4CKPS1=1
  00000003            00516 T4OUTPS0=3
  00000004            00517 T4OUTPS1=4
  00000005            00518 T4OUTPS2=5
  00000006            00519 T4OUTPS3=6
  00000000            00520 CCP5M0=0
  00000001            00521 CCP5M1=1
  00000002            00522 CCP5M2=2
  00000003            00523 CCP5M3=3
  00000004            00524 DC5B0=4
  00000005            00525 DC5B1=5
  00000000            00526 CCP4M0=0
  00000001            00527 CCP4M1=1
  00000002            00528 CCP4M2=2
  00000003            00529 CCP4M3=3
  00000004            00530 DC4B0=4
  00000005            00531 DC4B1=5
  00000000            00532 STR3A=0
  00000001            00533 STR3B=1
  00000002            00534 STR3C=2
  00000003            00535 STR3D=3
  00000004            00536 STR3SYNC=4
  00000007            00537 CCP3ASE=7
  00000000            00538 PSS3BD0=0
  00000001            00539 PSS3BD1=1
  00000002            00540 PSS3AC0=2
  00000003            00541 PSS3AC1=3
  00000004            00542 CCP3AS0=4
  00000005            00543 CCP3AS1=5
  00000006            00544 CCP3AS2=6
  00000007            00545 CCP3ASE=7
  00000000            00546 PSS3BD0=0
  00000001            00547 PSS3BD1=1
  00000002            00548 PSS3AC0=2
  00000003            00549 PSS3AC1=3
  00000004            00550 CCP3AS0=4
  00000005            00551 CCP3AS1=5
  00000006            00552 CCP3AS2=6
  00000007            00553 P3RSEN=7
  00000000            00554 P3DC0=0
  00000001            00555 P3DC1=1
  00000002            00556 P3DC2=2
  00000003            00557 P3DC3=3
  00000004            00558 P3DC4=4
  00000005            00559 P3DC5=5
  00000006            00560 P3DC6=6
  00000000            00561 CCP3M0=0
  00000001            00562 CCP3M1=1
  00000002            00563 CCP3M2=2
  00000003            00564 CCP3M3=3
  00000004            00565 DC3B0=4
  00000005            00566 DC3B1=5
  00000006            00567 P3M0=6
  00000007            00568 P3M1=7
  00000000            00569 SLRA=0
  00000001            00570 SLRB=1
  00000002            00571 SLRC=2
  00000000            00572 WPUB0=0
  00000001            00573 WPUB1=1
  00000002            00574 WPUB2=2
  00000003            00575 WPUB3=3
  00000004            00576 WPUB4=4
  00000005            00577 WPUB5=5
  00000006            00578 WPUB6=6
  00000007            00579 WPUB7=7
  00000004            00580 IOCB4=4
  00000005            00581 IOCB5=5
  00000006            00582 IOCB6=6
  00000007            00583 IOCB7=7
  00000000            00584 STR2A=0
  00000001            00585 STR2B=1
  00000002            00586 STR2C=2
  00000003            00587 STR2D=3
  00000004            00588 STR2SYNC=4
  00000007            00589 CCP2ASE=7
  00000000            00590 PSS2BD0=0
  00000001            00591 PSS2BD1=1
  00000002            00592 PSS2AC0=2
  00000003            00593 PSS2AC1=3
  00000004            00594 CCP2AS0=4
  00000005            00595 CCP2AS1=5
  00000006            00596 CCP2AS2=6
  00000007            00597 CCP2ASE=7
  00000000            00598 PSS2BD0=0
  00000001            00599 PSS2BD1=1
  00000002            00600 PSS2AC0=2
  00000003            00601 PSS2AC1=3
  00000004            00602 CCP2AS0=4
  00000005            00603 CCP2AS1=5
  00000006            00604 CCP2AS2=6
  00000007            00605 P2RSEN=7
  00000000            00606 P2DC0=0
  00000001            00607 P2DC1=1
  00000002            00608 P2DC2=2
  00000003            00609 P2DC3=3
  00000004            00610 P2DC4=4
  00000005            00611 P2DC5=5
  00000006            00612 P2DC6=6
  00000006            00613 P2M0=6
  00000007            00614 P2M1=7
  00000000            00615 CCP2M0=0
  00000001            00616 CCP2M1=1
  00000002            00617 CCP2M2=2
  00000003            00618 CCP2M3=3
  00000004            00619 DC2B0=4
  00000005            00620 DC2B1=5
  00000000            00621 DHEN=0
  00000001            00622 AHEN=1
  00000002            00623 SBCDE=2
  00000003            00624 SDAHT=3
  00000004            00625 BOEN=4
  00000005            00626 SCIE=5
  00000006            00627 PCIE=6
  00000007            00628 ACKTIM=7
  00000000            00629 MSK0=0
  00000001            00630 MSK1=1
  00000002            00631 MSK2=2
  00000003            00632 MSK3=3
  00000004            00633 MSK4=4
  00000005            00634 MSK5=5
  00000006            00635 MSK6=6
  00000007            00636 MSK7=7
  00000000            00637 SEN=0
  00000000            00638 PP_SEN=0
  00000001            00639 RSEN=1
  00000001            00640 PP_RSEN=1
  00000002            00641 PEN=2
  00000002            00642 PP_PEN=2
  00000003            00643 RCEN=3
  00000003            00644 PP_RCEN=3
  00000004            00645 ACKEN=4
  00000004            00646 PP_ACKEN=4
  00000005            00647 ACKDT=5
  00000005            00648 PP_ACKDT=5
  00000006            00649 ACKSTAT=6
  00000007            00650 GCEN=7
  00000004            00651 CKP=4
  00000005            00652 SSPEN=5
  00000006            00653 SSPOV=6
  00000007            00654 WCOL=7
  00000000            00655 SSPM0=0
  00000001            00656 SSPM1=1
  00000002            00657 SSPM2=2
  00000003            00658 SSPM3=3
  00000000            00659 BF=0
  00000001            00660 UA=1
  00000002            00661 R_NOT_W=2
  00000002            00662 PP_R_NOT_W=2
  00000005            00663 D_NOT_A=5
  00000006            00664 CKE=6
  00000007            00665 SMP=7
  00000002            00666 NOT_W=2
  00000005            00667 NOT_A=5
  00000002            00668 R_W=2
  00000002            00669 PP_R_W=2
  00000005            00670 D_A=5
  00000002            00671 NOT_WRITE=2
  00000005            00672 NOT_ADDRESS=5
  00000000            00673 ABDEN=0
  00000001            00674 WUE=1
  00000003            00675 BRG16=3
  00000004            00676 CKTXP=4
  00000005            00677 DTRXP=5
  00000006            00678 RCIDL=6
  00000007            00679 ABDOVF=7
  00000004            00680 SCKP=4
  00000000            00681 ABDEN=0
  00000001            00682 WUE=1
  00000003            00683 BRG16=3
  00000004            00684 CKTXP=4
  00000005            00685 DTRXP=5
  00000006            00686 RCIDL=6
  00000007            00687 ABDOVF=7
  00000004            00688 SCKP=4
  00000000            00689 RX9D=0
  00000001            00690 OERR=1
  00000001            00691 PP_OERR=1
  00000002            00692 FERR=2
  00000003            00693 ADDEN=3
  00000004            00694 CREN=4
  00000004            00695 PP_CREN=4
  00000005            00696 SREN=5
  00000006            00697 RX9=6
  00000007            00698 SPEN=7
  00000003            00699 ADEN=3
  00000000            00700 RX9D=0
  00000001            00701 OERR=1
  00000001            00702 PP_OERR=1
  00000002            00703 FERR=2
  00000003            00704 ADDEN=3
  00000004            00705 CREN=4
  00000004            00706 PP_CREN=4
  00000005            00707 SREN=5
  00000006            00708 RX9=6
  00000007            00709 SPEN=7
  00000003            00710 ADEN=3
  00000000            00711 TX9D=0
  00000001            00712 TRMT=1
  00000002            00713 BRGH=2
  00000003            00714 SENDB=3
  00000003            00715 PP_SENDB=3
  00000004            00716 SYNC=4
  00000005            00717 TXEN=5
  00000006            00718 TX9=6
  00000007            00719 CSRC=7
  00000000            00720 TX9D=0
  00000001            00721 TRMT=1
  00000002            00722 BRGH=2
  00000003            00723 SENDB=3
  00000003            00724 PP_SENDB=3
  00000004            00725 SYNC=4
  00000005            00726 TXEN=5
  00000006            00727 TX9=6
  00000007            00728 CSRC=7
  00000000            00729 C2SYNC=0
  00000001            00730 C1SYNC=1
  00000002            00731 C2HYS=2
  00000003            00732 C1HYS=3
  00000004            00733 C2RSEL=4
  00000005            00734 C1RSEL=5
  00000006            00735 MC2OUT=6
  00000007            00736 MC1OUT=7
  00000000            00737 C2SYNC=0
  00000001            00738 C1SYNC=1
  00000002            00739 C2HYS=2
  00000003            00740 C1HYS=3
  00000004            00741 C2RSEL=4
  00000005            00742 C1RSEL=5
  00000006            00743 MC2OUT=6
  00000007            00744 MC1OUT=7
  00000002            00745 C2R=2
  00000003            00746 C2SP=3
  00000004            00747 C2POL=4
  00000005            00748 C2OE=5
  00000006            00749 C2OUT_CM2CON=6
  00000007            00750 C2ON=7
  00000000            00751 C2CH0=0
  00000001            00752 C2CH1=1
  00000002            00753 C2R=2
  00000003            00754 C2SP=3
  00000004            00755 C2POL=4
  00000005            00756 C2OE=5
  00000006            00757 C2OUT_CM2CON0=6
  00000007            00758 C2ON=7
  00000000            00759 C2CH0=0
  00000001            00760 C2CH1=1
  00000002            00761 C1R=2
  00000003            00762 C1SP=3
  00000004            00763 C1POL=4
  00000005            00764 C1OE=5
  00000006            00765 C1OUT_CM1CON=6
  00000007            00766 C1ON=7
  00000000            00767 C1CH0=0
  00000001            00768 C1CH1=1
  00000002            00769 C1R=2
  00000003            00770 C1SP=3
  00000004            00771 C1POL=4
  00000005            00772 C1OE=5
  00000006            00773 C1OUT_CM1CON0=6
  00000007            00774 C1ON=7
  00000000            00775 C1CH0=0
  00000001            00776 C1CH1=1
  00000000            00777 CCP3IE=0
  00000001            00778 CCP4IE=1
  00000002            00779 CCP5IE=2
  00000000            00780 CCP3IF=0
  00000001            00781 CCP4IF=1
  00000002            00782 CCP5IF=2
  00000000            00783 CCP3IP=0
  00000001            00784 CCP4IP=1
  00000002            00785 CCP5IP=2
  00000000            00786 TMR4IE=0
  00000001            00787 TMR5IE=1
  00000002            00788 TMR6IE=2
  00000000            00789 TMR4IF=0
  00000001            00790 TMR5IF=1
  00000002            00791 TMR6IF=2
  00000000            00792 TMR4IP=0
  00000001            00793 TMR5IP=1
  00000002            00794 TMR6IP=2
  00000000            00795 RA0=0
  00000001            00796 RA1=1
  00000002            00797 RA2=2
  00000003            00798 RA3=3
  00000004            00799 RA4=4
  00000005            00800 RA5=5
  00000006            00801 RA6=6
  00000007            00802 RA7=7
  00000000            00803 AN0=0
  00000001            00804 AN1=1
  00000002            00805 AN2=2
  00000003            00806 AN3=3
  00000005            00807 AN4=5
  00000000            00808 C12IN0M=0
  00000001            00809 C12IN1M=1
  00000002            00810 C2INP=2
  00000003            00811 C1INP=3
  00000004            00812 C1OUT_PORTA=4
  00000005            00813 C2OUT_PORTA=5
  00000000            00814 C12IN0N=0
  00000001            00815 C12IN1N=1
  00000002            00816 VREFM=2
  00000003            00817 VREFP=3
  00000004            00818 T0CKI=4
  00000005            00819 SS=5
  00000002            00820 VREFN=2
  00000004            00821 SRQ=4
  00000005            00822 NOT_SS=5
  00000002            00823 CVREF=2
  00000004            00824 CCP5=4
  00000005            00825 LVDIN=5
  00000002            00826 DACOUT=2
  00000005            00827 HLVDIN=5
  00000005            00828 SS1=5
  00000005            00829 NOT_SS1=5
  00000005            00830 SRNQ=5
  00000000            00831 RB0=0
  00000001            00832 RB1=1
  00000002            00833 RB2=2
  00000003            00834 RB3=3
  00000004            00835 RB4=4
  00000005            00836 RB5=5
  00000006            00837 RB6=6
  00000007            00838 RB7=7
  00000000            00839 INT0=0
  00000001            00840 INT1=1
  00000002            00841 INT2=2
  00000003            00842 CCP2_PORTB=3
  00000004            00843 KBI0=4
  00000005            00844 KBI1=5
  00000006            00845 KBI2=6
  00000007            00846 KBI3=7
  00000000            00847 AN12=0
  00000001            00848 AN10=1
  00000002            00849 AN8=2
  00000003            00850 AN9=3
  00000004            00851 AN11=4
  00000005            00852 AN13=5
  00000006            00853 TX2=6
  00000007            00854 RX2=7
  00000000            00855 FLT0=0
  00000001            00856 C12IN3M=1
  00000002            00857 P1B=2
  00000003            00858 C12IN2M=3
  00000004            00859 T5G=4
  00000005            00860 T1G=5
  00000006            00861 CK2=6
  00000007            00862 DT2=7
  00000000            00863 SRI=0
  00000001            00864 C12IN3N=1
  00000002            00865 CTED1=2
  00000003            00866 C12IN2N=3
  00000004            00867 P1D=4
  00000005            00868 CCP3_PORTB=5
  00000006            00869 PGC=6
  00000007            00870 PGD=7
  00000000            00871 CCP4=0
  00000001            00872 P1C=1
  00000002            00873 SDA2=2
  00000003            00874 CTED2=3
  00000005            00875 T3CKI_PORTB=5
  00000000            00876 SS2=0
  00000001            00877 SCL2=1
  00000002            00878 SDI2=2
  00000003            00879 P2A_PORTB=3
  00000005            00880 P3A_PORTB=5
  00000000            00881 NOT_SS2=0
  00000001            00882 SCK2=1
  00000003            00883 SDO2=3
  00000005            00884 P2B_PORTB=5
  00000000            00885 RC0=0
  00000001            00886 RC1=1
  00000002            00887 RC2=2
  00000003            00888 RC3=3
  00000004            00889 RC4=4
  00000005            00890 RC5=5
  00000006            00891 RC6=6
  00000007            00892 RC7=7
  00000000            00893 T1OSO=0
  00000001            00894 T1OSI=1
  00000002            00895 T5CKI=2
  00000003            00896 SCK=3
  00000004            00897 SDI=4
  00000005            00898 SDO=5
  00000006            00899 TX=6
  00000007            00900 RX=7
  00000000            00901 P2B_PORTC=0
  00000001            00902 P2A_PORTC=1
  00000002            00903 P1A=2
  00000003            00904 SCL=3
  00000004            00905 SDA=4
  00000006            00906 CK=6
  00000000            00907 T1CKI=0
  00000001            00908 CCP2_PORTC=1
  00000002            00909 CCP1=2
  00000003            00910 SCK1=3
  00000004            00911 SDI1=4
  00000005            00912 SDO1=5
  00000006            00913 TX1=6
  00000007            00914 RX1=7
  00000000            00915 T3CKI_PORTC=0
  00000002            00916 CTPLS=2
  00000003            00917 SCL1=3
  00000004            00918 SDA1=4
  00000006            00919 CK1=6
  00000007            00920 DT1=7
  00000000            00921 T3G=0
  00000002            00922 AN14=2
  00000003            00923 AN15=3
  00000004            00924 AN16=4
  00000005            00925 AN17=5
  00000006            00926 AN18=6
  00000007            00927 AN19=7
  00000006            00928 CCP3_PORTC=6
  00000007            00929 P3B=7
  00000006            00930 P3A_PORTC=6
  00000003            00931 RE3=3
  00000003            00932 MCLR=3
  00000003            00933 NOT_MCLR=3
  00000003            00934 VPP=3
  00000000            00935 LATA0=0
  00000001            00936 LATA1=1
  00000002            00937 LATA2=2
  00000003            00938 LATA3=3
  00000004            00939 LATA4=4
  00000005            00940 LATA5=5
  00000006            00941 LATA6=6
  00000007            00942 LATA7=7
  00000000            00943 LATB0=0
  00000001            00944 LATB1=1
  00000002            00945 LATB2=2
  00000003            00946 LATB3=3
  00000004            00947 LATB4=4
  00000005            00948 LATB5=5
  00000006            00949 LATB6=6
  00000007            00950 LATB7=7
  00000000            00951 LATC0=0
  00000001            00952 LATC1=1
  00000002            00953 LATC2=2
  00000003            00954 LATC3=3
  00000004            00955 LATC4=4
  00000005            00956 LATC5=5
  00000006            00957 LATC6=6
  00000007            00958 LATC7=7
  00000000            00959 TRISA0=0
  00000001            00960 TRISA1=1
  00000002            00961 TRISA2=2
  00000003            00962 TRISA3=3
  00000004            00963 TRISA4=4
  00000005            00964 TRISA5=5
  00000006            00965 TRISA6=6
  00000007            00966 TRISA7=7
  00000000            00967 RA0=0
  00000001            00968 RA1=1
  00000002            00969 RA2=2
  00000003            00970 RA3=3
  00000004            00971 RA4=4
  00000005            00972 RA5=5
  00000006            00973 RA6=6
  00000007            00974 RA7=7
  00000000            00975 TRISA0=0
  00000001            00976 TRISA1=1
  00000002            00977 TRISA2=2
  00000003            00978 TRISA3=3
  00000004            00979 TRISA4=4
  00000005            00980 TRISA5=5
  00000006            00981 TRISA6=6
  00000007            00982 TRISA7=7
  00000000            00983 RA0=0
  00000001            00984 RA1=1
  00000002            00985 RA2=2
  00000003            00986 RA3=3
  00000004            00987 RA4=4
  00000005            00988 RA5=5
  00000006            00989 RA6=6
  00000007            00990 RA7=7
  00000000            00991 TRISB0=0
  00000001            00992 TRISB1=1
  00000002            00993 TRISB2=2
  00000003            00994 TRISB3=3
  00000004            00995 TRISB4=4
  00000005            00996 TRISB5=5
  00000006            00997 TRISB6=6
  00000007            00998 TRISB7=7
  00000000            00999 RB0=0
  00000001            01000 RB1=1
  00000002            01001 RB2=2
  00000003            01002 RB3=3
  00000004            01003 RB4=4
  00000005            01004 RB5=5
  00000006            01005 RB6=6
  00000007            01006 RB7=7
  00000000            01007 TRISB0=0
  00000001            01008 TRISB1=1
  00000002            01009 TRISB2=2
  00000003            01010 TRISB3=3
  00000004            01011 TRISB4=4
  00000005            01012 TRISB5=5
  00000006            01013 TRISB6=6
  00000007            01014 TRISB7=7
  00000000            01015 RB0=0
  00000001            01016 RB1=1
  00000002            01017 RB2=2
  00000003            01018 RB3=3
  00000004            01019 RB4=4
  00000005            01020 RB5=5
  00000006            01021 RB6=6
  00000007            01022 RB7=7
  00000000            01023 TRISC0=0
  00000001            01024 TRISC1=1
  00000002            01025 TRISC2=2
  00000003            01026 TRISC3=3
  00000004            01027 TRISC4=4
  00000005            01028 TRISC5=5
  00000006            01029 TRISC6=6
  00000007            01030 TRISC7=7
  00000000            01031 RC0=0
  00000001            01032 RC1=1
  00000002            01033 RC2=2
  00000003            01034 RC3=3
  00000004            01035 RC4=4
  00000005            01036 RC5=5
  00000006            01037 RC6=6
  00000007            01038 RC7=7
  00000000            01039 TRISC0=0
  00000001            01040 TRISC1=1
  00000002            01041 TRISC2=2
  00000003            01042 TRISC3=3
  00000004            01043 TRISC4=4
  00000005            01044 TRISC5=5
  00000006            01045 TRISC6=6
  00000007            01046 TRISC7=7
  00000000            01047 RC0=0
  00000001            01048 RC1=1
  00000002            01049 RC2=2
  00000003            01050 RC3=3
  00000004            01051 RC4=4
  00000005            01052 RC5=5
  00000006            01053 RC6=6
  00000007            01054 RC7=7
  00000007            01055 WPUE3=7
  00000006            01056 PLLEN=6
  00000007            01057 INTSRC=7
  00000000            01058 TUN0=0
  00000001            01059 TUN1=1
  00000002            01060 TUN2=2
  00000003            01061 TUN3=3
  00000004            01062 TUN4=4
  00000005            01063 TUN5=5
  00000004            01064 HLVDEN=4
  00000005            01065 IRVST=5
  00000006            01066 BGVST=6
  00000007            01067 VDIRMAG=7
  00000000            01068 HLVDL0=0
  00000001            01069 HLVDL1=1
  00000002            01070 HLVDL2=2
  00000003            01071 HLVDL3=3
  00000000            01072 LVDL0=0
  00000001            01073 LVDL1=1
  00000002            01074 LVDL2=2
  00000003            01075 LVDL3=3
  00000004            01076 LVDEN=4
  00000005            01077 IVRST=5
  00000000            01078 LVV0=0
  00000001            01079 LVV1=1
  00000002            01080 LVV2=2
  00000003            01081 LVV3=3
  00000005            01082 BGST=5
  00000004            01083 HLVDEN=4
  00000005            01084 IRVST=5
  00000006            01085 BGVST=6
  00000007            01086 VDIRMAG=7
  00000000            01087 HLVDL0=0
  00000001            01088 HLVDL1=1
  00000002            01089 HLVDL2=2
  00000003            01090 HLVDL3=3
  00000000            01091 LVDL0=0
  00000001            01092 LVDL1=1
  00000002            01093 LVDL2=2
  00000003            01094 LVDL3=3
  00000004            01095 LVDEN=4
  00000005            01096 IVRST=5
  00000000            01097 LVV0=0
  00000001            01098 LVV1=1
  00000002            01099 LVV2=2
  00000003            01100 LVV3=3
  00000005            01101 BGST=5
  00000000            01102 TMR1IE=0
  00000001            01103 TMR2IE=1
  00000002            01104 CCP1IE=2
  00000003            01105 SSP1IE=3
  00000004            01106 TX1IE=4
  00000005            01107 RC1IE=5
  00000006            01108 ADIE=6
  00000003            01109 SSPIE=3
  00000004            01110 TXIE=4
  00000005            01111 RCIE=5
  00000000            01112 TMR1IF=0
  00000001            01113 TMR2IF=1
  00000002            01114 CCP1IF=2
  00000003            01115 SSP1IF=3
  00000004            01116 TX1IF=4
  00000005            01117 RC1IF=5
  00000006            01118 ADIF=6
  00000003            01119 SSPIF=3
  00000004            01120 TXIF=4
  00000004            01121 PP_TXIF=4
  00000005            01122 RCIF=5
  00000005            01123 PP_RCIF=5
  00000000            01124 TMR1IP=0
  00000001            01125 TMR2IP=1
  00000002            01126 CCP1IP=2
  00000003            01127 SSP1IP=3
  00000004            01128 TX1IP=4
  00000005            01129 RC1IP=5
  00000006            01130 ADIP=6
  00000003            01131 SSPIP=3
  00000004            01132 TXIP=4
  00000005            01133 RCIP=5
  00000000            01134 CCP2IE=0
  00000001            01135 TMR3IE=1
  00000002            01136 HLVDIE=2
  00000003            01137 BCL1IE=3
  00000004            01138 EEIE=4
  00000005            01139 C2IE=5
  00000006            01140 C1IE=6
  00000007            01141 OSCFIE=7
  00000002            01142 LVDIE=2
  00000003            01143 BCLIE=3
  00000000            01144 CCP2IF=0
  00000001            01145 TMR3IF=1
  00000002            01146 HLVDIF=2
  00000003            01147 BCL1IF=3
  00000004            01148 EEIF=4
  00000005            01149 C2IF=5
  00000006            01150 C1IF=6
  00000007            01151 OSCFIF=7
  00000002            01152 LVDIF=2
  00000003            01153 BCLIF=3
  00000000            01154 CCP2IP=0
  00000001            01155 TMR3IP=1
  00000002            01156 HLVDIP=2
  00000003            01157 BCL1IP=3
  00000004            01158 EEIP=4
  00000005            01159 C2IP=5
  00000006            01160 C1IP=6
  00000007            01161 OSCFIP=7
  00000002            01162 LVDIP=2
  00000003            01163 BCLIP=3
  00000000            01164 TMR1GIE=0
  00000001            01165 TMR3GIE=1
  00000002            01166 TMR5GIE=2
  00000003            01167 CTMUIE=3
  00000004            01168 TX2IE=4
  00000005            01169 RC2IE=5
  00000006            01170 BCL2IE=6
  00000007            01171 SSP2IE=7
  00000000            01172 TMR1GIF=0
  00000001            01173 TMR3GIF=1
  00000002            01174 TMR5GIF=2
  00000003            01175 CTMUIF=3
  00000004            01176 TX2IF=4
  00000005            01177 RC2IF=5
  00000006            01178 BCL2IF=6
  00000007            01179 SSP2IF=7
  00000000            01180 TMR1GIP=0
  00000001            01181 TMR3GIP=1
  00000002            01182 TMR5GIP=2
  00000003            01183 CTMUIP=3
  00000004            01184 TX2IP=4
  00000005            01185 RC2IP=5
  00000006            01186 BCL2IP=6
  00000007            01187 SSP2IP=7
  00000000            01188 RD=0
  00000000            01189 PP_RD=0
  00000001            01190 WR=1
  00000001            01191 PP_WR=1
  00000002            01192 WREN=2
  00000002            01193 PP_WREN=2
  00000003            01194 WRERR=3
  00000003            01195 PP_WRERR=3
  00000004            01196 FREE=4
  00000006            01197 CFGS=6
  00000007            01198 EEPGD=7
  00000007            01199 PP_EEPGD=7
  00000000            01200 EEADR0=0
  00000001            01201 EEADR1=1
  00000002            01202 EEADR2=2
  00000003            01203 EEADR3=3
  00000004            01204 EEADR4=4
  00000005            01205 EEADR5=5
  00000006            01206 EEADR6=6
  00000007            01207 EEADR7=7
  00000000            01208 RX9D=0
  00000001            01209 OERR=1
  00000001            01210 PP_OERR=1
  00000002            01211 FERR=2
  00000003            01212 ADDEN=3
  00000004            01213 CREN=4
  00000004            01214 PP_CREN=4
  00000005            01215 SREN=5
  00000006            01216 RX9=6
  00000007            01217 SPEN=7
  00000003            01218 ADEN=3
  00000000            01219 RX9D=0
  00000001            01220 OERR=1
  00000001            01221 PP_OERR=1
  00000002            01222 FERR=2
  00000003            01223 ADDEN=3
  00000004            01224 CREN=4
  00000004            01225 PP_CREN=4
  00000005            01226 SREN=5
  00000006            01227 RX9=6
  00000007            01228 SPEN=7
  00000003            01229 ADEN=3
  00000000            01230 RX9D=0
  00000001            01231 OERR=1
  00000001            01232 PP_OERR=1
  00000002            01233 FERR=2
  00000003            01234 ADDEN=3
  00000004            01235 CREN=4
  00000004            01236 PP_CREN=4
  00000005            01237 SREN=5
  00000006            01238 RX9=6
  00000007            01239 SPEN=7
  00000003            01240 ADEN=3
  00000000            01241 TX9D=0
  00000001            01242 TRMT=1
  00000002            01243 BRGH=2
  00000003            01244 SENDB=3
  00000003            01245 PP_SENDB=3
  00000004            01246 SYNC=4
  00000005            01247 TXEN=5
  00000006            01248 TX9=6
  00000007            01249 CSRC=7
  00000000            01250 TX9D=0
  00000001            01251 TRMT=1
  00000002            01252 BRGH=2
  00000003            01253 SENDB=3
  00000003            01254 PP_SENDB=3
  00000004            01255 SYNC=4
  00000005            01256 TXEN=5
  00000006            01257 TX9=6
  00000007            01258 CSRC=7
  00000000            01259 TX9D=0
  00000001            01260 TRMT=1
  00000002            01261 BRGH=2
  00000003            01262 SENDB=3
  00000003            01263 PP_SENDB=3
  00000004            01264 SYNC=4
  00000005            01265 TXEN=5
  00000006            01266 TX9=6
  00000007            01267 CSRC=7
  00000000            01268 TMR3ON=0
  00000001            01269 T3RD16=1
  00000002            01270 NOT_T3SYNC=2
  00000003            01271 T3SOSCEN=3
  00000003            01272 T3OSCEN=3
  00000004            01273 T3CKPS0=4
  00000005            01274 T3CKPS1=5
  00000006            01275 TMR3CS0=6
  00000007            01276 TMR3CS1=7
  00000002            01277 T3GVAL=2
  00000003            01278 T3GGO_NOT_DONE=3
  00000004            01279 T3GSPM=4
  00000005            01280 T3GTM=5
  00000006            01281 T3GPOL=6
  00000007            01282 TMR3GE=7
  00000000            01283 T3GSS0=0
  00000001            01284 T3GSS1=1
  00000003            01285 T3G_DONE=3
  00000003            01286 T3GGO=3
  00000007            01287 CCP1ASE=7
  00000000            01288 PSS1BD0=0
  00000001            01289 PSS1BD1=1
  00000002            01290 PSS1AC0=2
  00000003            01291 PSS1AC1=3
  00000004            01292 CCP1AS0=4
  00000005            01293 CCP1AS1=5
  00000006            01294 CCP1AS2=6
  00000007            01295 ECCPASE=7
  00000000            01296 PSSBD0=0
  00000001            01297 PSSBD1=1
  00000002            01298 PSSAC0=2
  00000003            01299 PSSAC1=3
  00000004            01300 ECCPAS0=4
  00000005            01301 ECCPAS1=5
  00000006            01302 ECCPAS2=6
  00000007            01303 CCP1ASE=7
  00000000            01304 PSS1BD0=0
  00000001            01305 PSS1BD1=1
  00000002            01306 PSS1AC0=2
  00000003            01307 PSS1AC1=3
  00000004            01308 CCP1AS0=4
  00000005            01309 CCP1AS1=5
  00000006            01310 CCP1AS2=6
  00000007            01311 ECCPASE=7
  00000000            01312 PSSBD0=0
  00000001            01313 PSSBD1=1
  00000002            01314 PSSAC0=2
  00000003            01315 PSSAC1=3
  00000004            01316 ECCPAS0=4
  00000005            01317 ECCPAS1=5
  00000006            01318 ECCPAS2=6
  00000007            01319 P1RSEN=7
  00000000            01320 P1DC0=0
  00000001            01321 P1DC1=1
  00000002            01322 P1DC2=2
  00000003            01323 P1DC3=3
  00000004            01324 P1DC4=4
  00000005            01325 P1DC5=5
  00000006            01326 P1DC6=6
  00000007            01327 PRSEN=7
  00000000            01328 PDC0=0
  00000001            01329 PDC1=1
  00000002            01330 PDC2=2
  00000003            01331 PDC3=3
  00000004            01332 PDC4=4
  00000005            01333 PDC5=5
  00000006            01334 PDC6=6
  00000007            01335 P1RSEN=7
  00000000            01336 P1DC0=0
  00000001            01337 P1DC1=1
  00000002            01338 P1DC2=2
  00000003            01339 P1DC3=3
  00000004            01340 P1DC4=4
  00000005            01341 P1DC5=5
  00000006            01342 P1DC6=6
  00000007            01343 PRSEN=7
  00000000            01344 PDC0=0
  00000001            01345 PDC1=1
  00000002            01346 PDC2=2
  00000003            01347 PDC3=3
  00000004            01348 PDC4=4
  00000005            01349 PDC5=5
  00000006            01350 PDC6=6
  00000000            01351 ABDEN=0
  00000001            01352 WUE=1
  00000003            01353 BRG16=3
  00000004            01354 CKTXP=4
  00000005            01355 DTRXP=5
  00000006            01356 RCIDL=6
  00000007            01357 ABDOVF=7
  00000004            01358 SCKP=4
  00000000            01359 ABDEN=0
  00000001            01360 WUE=1
  00000003            01361 BRG16=3
  00000004            01362 CKTXP=4
  00000005            01363 DTRXP=5
  00000006            01364 RCIDL=6
  00000007            01365 ABDOVF=7
  00000004            01366 SCKP=4
  00000000            01367 ABDEN=0
  00000001            01368 WUE=1
  00000003            01369 BRG16=3
  00000004            01370 CKTXP=4
  00000005            01371 DTRXP=5
  00000006            01372 RCIDL=6
  00000007            01373 ABDOVF=7
  00000004            01374 SCKP=4
  00000000            01375 ABDEN=0
  00000001            01376 WUE=1
  00000003            01377 BRG16=3
  00000004            01378 CKTXP=4
  00000005            01379 DTRXP=5
  00000006            01380 RCIDL=6
  00000007            01381 ABDOVF=7
  00000004            01382 SCKP=4
  00000000            01383 STR1A=0
  00000001            01384 STR1B=1
  00000002            01385 STR1C=2
  00000003            01386 STR1D=3
  00000004            01387 STR1SYNC=4
  00000000            01388 STR1A=0
  00000001            01389 STR1B=1
  00000002            01390 STR1C=2
  00000003            01391 STR1D=3
  00000004            01392 STR1SYNC=4
  00000002            01393 TMR2ON=2
  00000002            01394 PP_TMR2ON=2
  00000000            01395 T2CKPS0=0
  00000000            01396 PP_T2CKPS0=0
  00000001            01397 T2CKPS1=1
  00000001            01398 PP_T2CKPS1=1
  00000003            01399 T2OUTPS0=3
  00000004            01400 T2OUTPS1=4
  00000005            01401 T2OUTPS2=5
  00000006            01402 T2OUTPS3=6
  00000000            01403 CCP1M0=0
  00000001            01404 CCP1M1=1
  00000002            01405 CCP1M2=2
  00000003            01406 CCP1M3=3
  00000004            01407 DC1B0=4
  00000005            01408 DC1B1=5
  00000006            01409 P1M0=6
  00000007            01410 P1M1=7
  00000007            01411 ADFM=7
  00000000            01412 ADCS0=0
  00000001            01413 ADCS1=1
  00000002            01414 ADCS2=2
  00000003            01415 ACQT0=3
  00000004            01416 ACQT1=4
  00000005            01417 ACQT2=5
  00000007            01418 TRIGSEL=7
  00000000            01419 NVCFG0=0
  00000001            01420 NVCFG1=1
  00000002            01421 PVCFG0=2
  00000003            01422 PVCFG1=3
  00000000            01423 ADON=0
  00000000            01424 PP_ADON=0
  00000001            01425 GO_NOT_DONE=1
  00000001            01426 PP_GO_NOT_DONE=1
  00000001            01427 DONE=1
  00000001            01428 NOT_DONE=1
  00000001            01429 GO_DONE=1
  00000001            01430 PP_GO_DONE=1
  00000000            01431 SEN=0
  00000000            01432 PP_SEN=0
  00000001            01433 RSEN=1
  00000001            01434 PP_RSEN=1
  00000002            01435 PEN=2
  00000002            01436 PP_PEN=2
  00000003            01437 RCEN=3
  00000003            01438 PP_RCEN=3
  00000004            01439 ACKEN=4
  00000004            01440 PP_ACKEN=4
  00000005            01441 ACKDT=5
  00000005            01442 PP_ACKDT=5
  00000006            01443 ACKSTAT=6
  00000007            01444 GCEN=7
  00000000            01445 SEN=0
  00000000            01446 PP_SEN=0
  00000001            01447 RSEN=1
  00000001            01448 PP_RSEN=1
  00000002            01449 PEN=2
  00000002            01450 PP_PEN=2
  00000003            01451 RCEN=3
  00000003            01452 PP_RCEN=3
  00000004            01453 ACKEN=4
  00000004            01454 PP_ACKEN=4
  00000005            01455 ACKDT=5
  00000005            01456 PP_ACKDT=5
  00000006            01457 ACKSTAT=6
  00000007            01458 GCEN=7
  00000004            01459 CKP=4
  00000005            01460 SSPEN=5
  00000006            01461 SSPOV=6
  00000007            01462 WCOL=7
  00000000            01463 SSPM0=0
  00000001            01464 SSPM1=1
  00000002            01465 SSPM2=2
  00000003            01466 SSPM3=3
  00000004            01467 CKP=4
  00000005            01468 SSPEN=5
  00000006            01469 SSPOV=6
  00000007            01470 WCOL=7
  00000000            01471 SSPM0=0
  00000001            01472 SSPM1=1
  00000002            01473 SSPM2=2
  00000003            01474 SSPM3=3
  00000000            01475 BF=0
  00000001            01476 UA=1
  00000002            01477 R_NOT_W=2
  00000002            01478 PP_R_NOT_W=2
  00000005            01479 D_NOT_A=5
  00000006            01480 CKE=6
  00000007            01481 SMP=7
  00000002            01482 NOT_W=2
  00000005            01483 NOT_A=5
  00000002            01484 R_W=2
  00000002            01485 PP_R_W=2
  00000005            01486 D_A=5
  00000002            01487 NOT_WRITE=2
  00000005            01488 NOT_ADDRESS=5
  00000000            01489 BF=0
  00000001            01490 UA=1
  00000002            01491 R_NOT_W=2
  00000002            01492 PP_R_NOT_W=2
  00000005            01493 D_NOT_A=5
  00000006            01494 CKE=6
  00000007            01495 SMP=7
  00000002            01496 NOT_W=2
  00000005            01497 NOT_A=5
  00000002            01498 R_W=2
  00000002            01499 PP_R_W=2
  00000005            01500 D_A=5
  00000002            01501 NOT_WRITE=2
  00000005            01502 NOT_ADDRESS=5
  00000000            01503 MSK0=0
  00000001            01504 MSK1=1
  00000002            01505 MSK2=2
  00000003            01506 MSK3=3
  00000004            01507 MSK4=4
  00000005            01508 MSK5=5
  00000006            01509 MSK6=6
  00000007            01510 MSK7=7
  00000000            01511 MSK0=0
  00000001            01512 MSK1=1
  00000002            01513 MSK2=2
  00000003            01514 MSK3=3
  00000004            01515 MSK4=4
  00000005            01516 MSK5=5
  00000006            01517 MSK6=6
  00000007            01518 MSK7=7
  00000000            01519 DHEN=0
  00000001            01520 AHEN=1
  00000002            01521 SBCDE=2
  00000003            01522 SDAHT=3
  00000004            01523 BOEN=4
  00000005            01524 SCIE=5
  00000006            01525 PCIE=6
  00000007            01526 ACKTIM=7
  00000000            01527 DHEN=0
  00000001            01528 AHEN=1
  00000002            01529 SBCDE=2
  00000003            01530 SDAHT=3
  00000004            01531 BOEN=4
  00000005            01532 SCIE=5
  00000006            01533 PCIE=6
  00000007            01534 ACKTIM=7
  00000002            01535 T1GVAL=2
  00000003            01536 T1GGO_NOT_DONE=3
  00000004            01537 T1GSPM=4
  00000005            01538 T1GTM=5
  00000006            01539 T1GPOL=6
  00000007            01540 TMR1GE=7
  00000000            01541 T1GSS0=0
  00000001            01542 T1GSS1=1
  00000003            01543 T1G_DONE=3
  00000003            01544 T1GGO=3
  00000000            01545 TMR1ON=0
  00000001            01546 T1RD16=1
  00000002            01547 NOT_T1SYNC=2
  00000003            01548 T1SOSCEN=3
  00000001            01549 RD16=1
  00000001            01550 PP_RD16=1
  00000002            01551 T1SYNC=2
  00000003            01552 T1OSCEN=3
  00000004            01553 T1CKPS0=4
  00000005            01554 T1CKPS1=5
  00000006            01555 TMR1CS0=6
  00000007            01556 TMR1CS1=7
  00000000            01557 NOT_BOR=0
  00000001            01558 NOT_POR=1
  00000002            01559 NOT_PD=2
  00000003            01560 NOT_TO=3
  00000004            01561 NOT_RI=4
  00000006            01562 SBOREN=6
  00000007            01563 IPEN=7
  00000000            01564 BOR=0
  00000001            01565 POR=1
  00000002            01566 PD=2
  00000003            01567 TO=3
  00000004            01568 RI=4
  00000000            01569 SWDTEN=0
  00000000            01570 SWDTE=0
  00000000            01571 LFIOFS=0
  00000001            01572 MFIOFS=1
  00000002            01573 PRISD=2
  00000003            01574 SOSCGO=3
  00000004            01575 MFIOSEL=4
  00000006            01576 SOSCRUN=6
  00000007            01577 PLLRDY=7
  00000002            01578 HFIOFS=2
  00000003            01579 OSTS=3
  00000007            01580 IDLEN=7
  00000000            01581 SCS0=0
  00000001            01582 SCS1=1
  00000002            01583 IOFS=2
  00000004            01584 IRCF0=4
  00000005            01585 IRCF1=5
  00000006            01586 IRCF2=6
  00000003            01587 PSA=3
  00000004            01588 T0SE=4
  00000005            01589 T0CS=5
  00000006            01590 T08BIT=6
  00000007            01591 TMR0ON=7
  00000000            01592 T0PS0=0
  00000001            01593 T0PS1=1
  00000002            01594 T0PS2=2
  00000000            01595 C=0
  00000001            01596 DC=1
  00000002            01597 Z=2
  00000003            01598 OV=3
  00000004            01599 N=4
  00000000            01600 INT1IF=0
  00000001            01601 INT2IF=1
  00000003            01602 INT1IE=3
  00000004            01603 INT2IE=4
  00000006            01604 INT1IP=6
  00000007            01605 INT2IP=7
  00000000            01606 INT1F=0
  00000001            01607 INT2F=1
  00000003            01608 INT1E=3
  00000004            01609 INT2E=4
  00000006            01610 INT1P=6
  00000007            01611 INT2P=7
  00000000            01612 RBIP=0
  00000002            01613 TMR0IP=2
  00000004            01614 INTEDG2=4
  00000005            01615 INTEDG1=5
  00000006            01616 INTEDG0=6
  00000007            01617 NOT_RBPU=7
  00000007            01618 RBPU=7
  00000000            01619 RBIF=0
  00000001            01620 INT0IF=1
  00000002            01621 TMR0IF=2
  00000003            01622 RBIE=3
  00000004            01623 INT0IE=4
  00000005            01624 TMR0IE=5
  00000006            01625 PEIE_GIEL=6
  00000007            01626 GIE_GIEH=7
  00000001            01627 INT0F=1
  00000002            01628 T0IF=2
  00000004            01629 INT0E=4
  00000005            01630 T0IE=5
  00000006            01631 PEIE=6
  00000007            01632 GIE=7
  00000006            01633 GIEL=6
  00000007            01634 GIEH=7
  00000006            01635 STKUNF=6
  00000007            01636 STKFUL=7
  00000000            01637 SP0=0
  00000001            01638 SP1=1
  00000002            01639 SP2=2
  00000003            01640 SP3=3
  00000004            01641 SP4=4
  00000007            01642 STKOVF=7
  00000FFF            01643   __MAXRAM  0X0FFF
                      01644   __BADRAM  0X0300-0X0F37
                      01645   __BADRAM  0X0F3B-0X0F3C
                      01646   __BADRAM  0X0F83
                      01647   __BADRAM  0X0F85-0X0F88
                      01648   __BADRAM  0X0F8C-0X0F91
                      01649   __BADRAM  0X0F95
                      01650   __BADRAM  0X0F97-0X0F9A
                      01651   __BADRAM  0X0FAA
                      01652   __BADRAM  0X0FB5
                      01653   __BADRAM  0X0FD4
  00300001            01654 config1h equ 0X300001
  00300002            01655 config2l equ 0X300002
  00300003            01656 config2h equ 0X300003
  00300005            01657 config3h equ 0X300005
  00300006            01658 config4l equ 0X300006
  00300008            01659 config5l equ 0X300008
  00300009            01660 config5h equ 0X300009
  0030000A            01661 config6l equ 0X30000A
  0030000B            01662 config6h equ 0X30000B
  0030000C            01663 config7l equ 0X30000C
  0030000D            01664 config7h equ 0X30000D
  000000F0            01665 FOSC_LP_1 equ 0XF0
  000000F1            01666 FOSC_XT_1 equ 0XF1
  000000F2            01667 FOSC_HSHP_1 equ 0XF2
  000000F3            01668 FOSC_HSMP_1 equ 0XF3
  000000F4            01669 FOSC_ECHP_1 equ 0XF4
  000000F5            01670 FOSC_ECHPIO6_1 equ 0XF5
  000000F6            01671 FOSC_RC_1 equ 0XF6
  000000F7            01672 FOSC_RCIO6_1 equ 0XF7
  000000F8            01673 FOSC_INTIO67_1 equ 0XF8
  000000F9            01674 FOSC_INTIO7_1 equ 0XF9
  000000FA            01675 FOSC_ECMP_1 equ 0XFA
  000000FB            01676 FOSC_ECMPIO6_1 equ 0XFB
  000000FC            01677 FOSC_ECLP_1 equ 0XFC
  000000FD            01678 FOSC_ECLPIO6_1 equ 0XFD
  000000EF            01679 PLLCFG_OFF_1 equ 0XEF
  000000FF            01680 PLLCFG_ON_1 equ 0XFF
  000000DF            01681 PRICLKEN_OFF_1 equ 0XDF
  000000FF            01682 PRICLKEN_ON_1 equ 0XFF
  000000BF            01683 FCMEN_OFF_1 equ 0XBF
  000000FF            01684 FCMEN_ON_1 equ 0XFF
  0000007F            01685 IESO_OFF_1 equ 0X7F
  000000FF            01686 IESO_ON_1 equ 0XFF
  000000FE            01687 PWRTEN_ON_2 equ 0XFE
  000000FF            01688 PWRTEN_OFF_2 equ 0XFF
  000000F9            01689 BOREN_OFF_2 equ 0XF9
  000000FB            01690 BOREN_ON_2 equ 0XFB
  000000FD            01691 BOREN_NOSLP_2 equ 0XFD
  000000FF            01692 BOREN_SBORDIS_2 equ 0XFF
  000000E7            01693 BORV_285_2 equ 0XE7
  000000EF            01694 BORV_250_2 equ 0XEF
  000000F7            01695 BORV_220_2 equ 0XF7
  000000FF            01696 BORV_190_2 equ 0XFF
  000000FC            01697 WDTEN_OFF_2 equ 0XFC
  000000FD            01698 WDTEN_NOSLP_2 equ 0XFD
  000000FE            01699 WDTEN_SWON_2 equ 0XFE
  000000FF            01700 WDTEN_ON_2 equ 0XFF
  000000C3            01701 WDTPS_1_2 equ 0XC3
  000000C7            01702 WDTPS_2_2 equ 0XC7
  000000CB            01703 WDTPS_4_2 equ 0XCB
  000000CF            01704 WDTPS_8_2 equ 0XCF
  000000D3            01705 WDTPS_16_2 equ 0XD3
  000000D7            01706 WDTPS_32_2 equ 0XD7
  000000DB            01707 WDTPS_64_2 equ 0XDB
  000000DF            01708 WDTPS_128_2 equ 0XDF
  000000E3            01709 WDTPS_256_2 equ 0XE3
  000000E7            01710 WDTPS_512_2 equ 0XE7
  000000EB            01711 WDTPS_1024_2 equ 0XEB
  000000EF            01712 WDTPS_2048_2 equ 0XEF
  000000F3            01713 WDTPS_4096_2 equ 0XF3
  000000F7            01714 WDTPS_8192_2 equ 0XF7
  000000FB            01715 WDTPS_16384_2 equ 0XFB
  000000FF            01716 WDTPS_32768_2 equ 0XFF
  000000FE            01717 CCP2MX_PORTB3_3 equ 0XFE
  000000FF            01718 CCP2MX_PORTC1_3 equ 0XFF
  000000FD            01719 PBADEN_OFF_3 equ 0XFD
  000000FF            01720 PBADEN_ON_3 equ 0XFF
  000000FB            01721 CCP3MX_PORTC6_3 equ 0XFB
  000000FF            01722 CCP3MX_PORTB5_3 equ 0XFF
  000000F7            01723 HFOFST_OFF_3 equ 0XF7
  000000FF            01724 HFOFST_ON_3 equ 0XFF
  000000EF            01725 T3CMX_PORTB5_3 equ 0XEF
  000000FF            01726 T3CMX_PORTC0_3 equ 0XFF
  000000DF            01727 P2BMX_PORTC0_3 equ 0XDF
  000000FF            01728 P2BMX_PORTB5_3 equ 0XFF
  0000007F            01729 MCLRE_INTMCLR_3 equ 0X7F
  000000FF            01730 MCLRE_EXTMCLR_3 equ 0XFF
  000000FE            01731 STVREN_OFF_4 equ 0XFE
  000000FF            01732 STVREN_ON_4 equ 0XFF
  000000FB            01733 LVP_OFF_4 equ 0XFB
  000000FF            01734 LVP_ON_4 equ 0XFF
  000000BF            01735 XINST_OFF_4 equ 0XBF
  000000FF            01736 XINST_ON_4 equ 0XFF
  0000007F            01737 DEBUG_ON_4 equ 0X7F
  000000FF            01738 DEBUG_OFF_4 equ 0XFF
  000000FE            01739 CP0_ON_5 equ 0XFE
  000000FF            01740 CP0_OFF_5 equ 0XFF
  000000FD            01741 CP1_ON_5 equ 0XFD
  000000FF            01742 CP1_OFF_5 equ 0XFF
  000000FB            01743 CP2_ON_5 equ 0XFB
  000000FF            01744 CP2_OFF_5 equ 0XFF
  000000F7            01745 CP3_ON_5 equ 0XF7
  000000FF            01746 CP3_OFF_5 equ 0XFF
  000000BF            01747 CPB_ON_5 equ 0XBF
  000000FF            01748 CPB_OFF_5 equ 0XFF
  0000007F            01749 CPD_ON_5 equ 0X7F
  000000FF            01750 CPD_OFF_5 equ 0XFF
  000000FE            01751 WRT0_ON_6 equ 0XFE
  000000FF            01752 WRT0_OFF_6 equ 0XFF
  000000FD            01753 WRT1_ON_6 equ 0XFD
  000000FF            01754 WRT1_OFF_6 equ 0XFF
  000000FB            01755 WRT2_ON_6 equ 0XFB
  000000FF            01756 WRT2_OFF_6 equ 0XFF
  000000F7            01757 WRT3_ON_6 equ 0XF7
  000000FF            01758 WRT3_OFF_6 equ 0XFF
  000000DF            01759 WRTC_ON_6 equ 0XDF
  000000FF            01760 WRTC_OFF_6 equ 0XFF
  000000BF            01761 WRTB_ON_6 equ 0XBF
  000000FF            01762 WRTB_OFF_6 equ 0XFF
  0000007F            01763 WRTD_ON_6 equ 0X7F
  000000FF            01764 WRTD_OFF_6 equ 0XFF
  000000FE            01765 EBTR0_ON_7 equ 0XFE
  000000FF            01766 EBTR0_OFF_7 equ 0XFF
  000000FD            01767 EBTR1_ON_7 equ 0XFD
  000000FF            01768 EBTR1_OFF_7 equ 0XFF
  000000FB            01769 EBTR2_ON_7 equ 0XFB
  000000FF            01770 EBTR2_OFF_7 equ 0XFF
  000000F7            01771 EBTR3_ON_7 equ 0XF7
  000000FF            01772 EBTR3_OFF_7 equ 0XFF
  000000BF            01773 EBTRB_ON_7 equ 0XBF
  000000FF            01774 EBTRB_OFF_7 equ 0XFF
  003FFFFE            01775 DEVID1 equ 0X3FFFFE
  003FFFFF            01776 DEVID2 equ 0X3FFFFF
  00200000            01777 IDLOC0 equ 0X200000
  00200000            01778 __IDLOC0 equ 0X200000
  00200001            01779 IDLOC1 equ 0X200001
  00200001            01780 __IDLOC1 equ 0X200001
  00200002            01781 IDLOC2 equ 0X200002
  00200002            01782 __IDLOC2 equ 0X200002
  00200003            01783 IDLOC3 equ 0X200003
  00200003            01784 __IDLOC3 equ 0X200003
  00200004            01785 IDLOC4 equ 0X200004
  00200004            01786 __IDLOC4 equ 0X200004
  00200005            01787 IDLOC5 equ 0X200005
  00200005            01788 __IDLOC5 equ 0X200005
  00200006            01789 IDLOC6 equ 0X200006
  00200006            01790 __IDLOC6 equ 0X200006
  00200007            01791 IDLOC7 equ 0X200007
  00200007            01792 __IDLOC7 equ 0X200007
                      01795 #define __18F24K22 1
                      01796 #define XTAL 4
                      01797 #define _CORE 16
                      01798 #define _MAXRAM 768
                      01799 #define _RAM_END 768
                      01800 #define _MAXMEM 0X4000
                      01801 #define _ADC 19
                      01802 #define _ADC_RES 10
                      01803 #define _EEPROM 256
                      01804 #define RAM_BANKS 0
                      01805 #define _USART 2
                      01806 #define _USB 0
                      01807 #define _USB#RAM_START 0
                      01808 #define _FLASH 1
                      01809 #define _CWRITE_BLOCK 32
                      01810 #define bankA_Start 0
                      01811 #define bankA_End 95
                      01812 #define _SYSTEM_VARIABLE_COUNT 19
  00000000            01813 ram_bank = 0
                      01814 #define LCD#TYPE 0
                      01815 #define __INTERRUPTS_ENABLED 1
                      01816 #define __HIGH_INTERRUPTS_ENABLED 1
                      01828 #define clrw clrf WREG
                      01829 #define negw negf WREG
                      01830 #define skpc btfss STATUS,0
                      01831 #define skpnc btfsc STATUS,0
                      01832 #define clrc bcf STATUS,0
                      01833 #define setc bsf STATUS,0
                      01834 #define skpz btfss STATUS,2
                      01835 #define skpnz btfsc STATUS,2
                      01836 #define clrz bcf STATUS,2
                      01837 #define setz bsf STATUS,2
                      01838 MOVFW macro pVarin
                      01839     movf pVarin,W
                      01840     endm
                      01841 rlf macro pVarin,pDestination
                      01842     rlcf pVarin,pDestination
                      01843     endm
                      01844 rrf macro pVarin,pDestination
                      01845     rrcf pVarin,pDestination
                      01846     endm
                      01847 jump macro pLabel
                      01848     goto pLabel
                      01849     endm
                      01850 f@call macro pDestination
                      01851 if (pDestination < 1)
                      01852     call pDestination
                      01853 else
                      01854 if (pDestination > $)
                      01855     call pDestination
                      01856 else
                      01857 if (pDestination < ($ - 0X03FF))
                      01858     call pDestination
                      01859 else
                      01860     rcall pDestination
                      01861 endif
                      01862 endif
                      01863 endif
                      01864     endm
                      01865 f@jump macro pDestination
                      01866 ifdef watchdog_req
                      01867 if ($ == pDestination)
                      01868     clrwdt
                      01869 endif
                      01870 endif
                      01871 if (pDestination < 1)
                      01872     goto pDestination
                      01873 else
                      01874 if ((pDestination) > $)
                      01875     goto pDestination
                      01876 else
                      01877 if ((pDestination) < ($ - 0X03FF))
                      01878     goto pDestination
                      01879 else
                      01880     bra pDestination
                      01881 endif
                      01882 endif
                      01883 endif
                      01884     endm
                      01885 ifdef watchdog_req
                      01886     chk@slf macro pDestination
                      01887 if ($ == pDestination)
                      01888     clrwdt
                      01889 endif
                      01890     endm
                      01891 endif
                      01892 g@oto macro pDestination
                      01893 if (pDestination < 1)
                      01894     btfsc STATUS,OV
                      01895     goto pDestination
                      01896 else
                      01897 if (pDestination > $)
                      01898     btfsc STATUS,OV
                      01899     goto pDestination
                      01900 else
                      01901 if (pDestination < ($ - 127))
                      01902     btfsc STATUS,OV
                      01903     goto pDestination
                      01904 else
                      01905     bov pDestination
                      01906 endif
                      01907 endif
                      01908 endif
                      01909     endm
                      01910 go@to macro pDestination
                      01911 if (pDestination < 1)
                      01912     goto pDestination
                      01913 else
                      01914 if (pDestination > $)
                      01915     goto pDestination
                      01916 else
                      01917 if (pDestination < ($ - 0X03FF))
                      01918     goto pDestination
                      01919 else
                      01920     bra pDestination
                      01921 endif
                      01922 endif
                      01923 endif
                      01924     endm
                      01925 s@b macro pVarin
                      01926 if ((pVarin > bankA_End) & (pVarin < 0X0F80))
                      01927 if ((pVarin & 0X0F00) != (ram_bank << 8))
                      01928     movlb high (pVarin)
                      01929     ram_bank = (pVarin >> 8)
                      01930 endif
                      01931 endif
                      01932     endm
                      01933 r@b macro
                      01934 if(ram_bank != 0)
                      01935     movlb 0
                      01936     ram_bank = 0
                      01937 endif
                      01938     endm
                      01939 wreg_byte macro pByteOut
                      01940     movff WREG,pByteOut
                      01941     endm
                      01942 wreg_bit macro pVarOut,pBitout
                      01943     s@b pVarOut
                      01944     btfsc WREG,0
                      01945     bsf pVarOut,pBitout
                      01946     btfss WREG,0
                      01947     bcf pVarOut,pBitout
                      01948     r@b
                      01949     endm
                      01950 wreg_word macro pWordOut
                      01951     movff WREG,pWordOut
                      01952     movlw 0
                      01953     movff WREG,pWordOut+1
                      01954     endm
                      01955 wreg_dword macro pDwordOut
                      01956     movff WREG,pDwordOut
                      01957     movlw 0
                      01958     movff WREG,pDwordOut+3
                      01959     movff WREG,pDwordOut+2
                      01960     movff WREG,pDwordOut+1
                      01961     endm
                      01962 num_SFR macro pNumIn,pSFROut
                      01964     movlw pNumIn
                      01965     movwf pSFROut
                      01966     endm
                      01967 NUM16_SFR macro pNumIn,pSFROut
                      01969     movlw (pNumIn & 255)
                      01970     movwf pSFROut
                      01971     movlw ((pNumIn >> 8) & 255)
                      01972     movwf pSFROut + 1
                      01973     endm
                      01974 byte_wreg macro pByteIn
                      01975     movff pByteIn,WREG
                      01976     endm
                      01977 num_wreg macro pNumIn
                      01978     movlw (pNumIn & 255)
                      01979     endm
                      01980 num_byte macro pNumIn,pByteOut
                      01981     movlw (pNumIn & 255)
                      01982     movff WREG,pByteOut
                      01983     endm
                      01984 num_bit macro pNumIn,pVarOut,pBitout
                      01985     s@b pVarOut
                      01986 if((pNumIn & 1) == 1)
                      01987     bsf pVarOut,pBitout
                      01988 else
                      01989     bcf pVarOut,pBitout
                      01990 endif
                      01991     r@b
                      01992     endm
                      01993 num_word macro pNumIn,pWordOut
                      01994 ifdef _USELFSR
                      01995 if(pWordOut == FSR0L)
                      01996     lfsr 0,pNumIn
                      01997     exitm
                      01998 endif
                      01999 if(pWordOut == FSR1L)
                      02000     lfsr 1,pNumIn
                      02001     exitm
                      02002 endif
                      02003 if(pWordOut == FSR2L)
                      02004     lfsr 2,pNumIn
                      02005     exitm
                      02006 endif
                      02007 endif
                      02008     s@b pWordOut
                      02009     movlw (pNumIn & 255)
                      02010     movwf pWordOut
                      02011     s@b pWordOut+1
                      02012     movlw high (pNumIn)
                      02013     movwf pWordOut+1
                      02014     r@b
                      02015     endm
                      02016 num_dword macro pNumIn,pDwordOut
                      02017     s@b pDwordOut
                      02018     movlw low (pNumIn)
                      02019     movwf pDwordOut
                      02020     s@b pDwordOut+1
                      02021     movlw high (pNumIn)
                      02022     movwf pDwordOut+1
                      02023     s@b pDwordOut+2
                      02024     movlw ((pNumIn >> 16) & 255)
                      02025     movwf pDwordOut+2
                      02026     s@b pDwordOut+3
                      02027     movlw ((pNumIn >> 24) & 255)
                      02028     movwf pDwordOut+3
                      02029     r@b
                      02030     endm
                      02031 bit_wreg macro pVarin,pBitIn
                      02032     s@b pVarin
                      02033     clrw
                      02034     btfsc pVarin,pBitIn
                      02035     movlw 1
                      02036     r@b
                      02037     endm
                      02038 bit_byte macro pVarin,pBitIn,pByteOut
                      02039     s@b pVarin
                      02040     clrw
                      02041     btfsc pVarin,pBitIn
                      02042     movlw 1
                      02043     s@b pByteOut
                      02044     movwf pByteOut
                      02045     r@b
                      02046     endm
                      02047 bit_bit macro pVarin,pBitIn,pVarOut,pBitout
                      02048 if ((pVarin & 0X0F00) == (pVarOut & 0X0F00))
                      02049     s@b pVarin
                      02050     btfsc pVarin,pBitIn
                      02051     bsf pVarOut,pBitout
                      02052     btfss pVarin,pBitIn
                      02053     bcf pVarOut,pBitout
                      02054 else
                      02055 if ((pVarin <= bankA_End) | (pVarin >= 0X0F80))
                      02056     s@b pVarOut
                      02057     btfsc pVarin,pBitIn
                      02058     bsf pVarOut,pBitout
                      02059     btfss pVarin,pBitIn
                      02060     bcf pVarOut,pBitout
                      02061 else
                      02062 if ((pVarOut <= bankA_End) | (pVarOut >= 0X0F80))
                      02063     s@b pVarin
                      02064     btfsc pVarin,pBitIn
                      02065     bsf pVarOut,pBitout
                      02066     btfss pVarin,pBitIn
                      02067     bcf pVarOut,pBitout
                      02068 else
                      02069     s@b pVarin
                      02070     clrdc
                      02071     btfsc pVarin,pBitIn
                      02072     setdc
                      02073     s@b pVarOut
                      02074     skpndc
                      02075     bsf pVarOut,pBitout
                      02076     skpdc
                      02077     bcf pVarOut,pBitout
                      02078 endif
                      02079 endif
                      02080 endif
                      02081     r@b
                      02082     endm
                      02083 bit_word macro pVarin,pBitIn,pWordOut
                      02084     s@b pWordOut+1
                      02085     clrf pWordOut+1
                      02086     bit_byte pVarin,pBitIn,pWordOut
                      02087     endm
                      02088 bit_dword macro pVarin,pBitIn,pDwordOut
                      02089     s@b pDwordOut+3
                      02090     clrf pDwordOut+3
                      02091     s@b pDwordOut+2
                      02092     clrf pDwordOut+2
                      02093     s@b pDwordOut+1
                      02094     clrf pDwordOut+1
                      02095     bit_byte pVarin,pBitIn,pDwordOut
                      02096     endm
                      02097 word_wreg macro pWordIn
                      02098     byte_wreg pWordIn
                      02099     endm
                      02100 word_byte macro pWordIn,pByteOut
                      02101     byte_byte pWordIn,pByteOut
                      02102     endm
                      02103 word_bit macro pWordIn,pVarOut,pBitout
                      02104     byte_bit pWordIn, pVarOut, pBitout
                      02105     endm
                      02106 word_word macro pWordIn,pWordOut
                      02107     movff pWordIn+1,pWordOut+1
                      02108     movff pWordIn,pWordOut
                      02109     endm
                      02110 word_dword macro pWordIn,pDwordOut
                      02111     movlw 0
                      02112     movff WREG,pDwordOut+3
                      02113     movff WREG,pDwordOut+2
                      02114     word_word pWordIn,pDwordOut
                      02115     endm
                      02116 byte_byte macro pByteIn,pByteOut
                      02117     movff pByteIn,pByteOut
                      02118     endm
                      02119 byte_word macro pByteIn,pWordOut
                      02120     movlw 0
                      02121     movff WREG,pWordOut+1
                      02122     byte_byte pByteIn,pWordOut
                      02123     endm
                      02124 byte_dword macro pByteIn,pDwordOut
                      02125     movlw 0
                      02126     movff WREG,pDwordOut+3
                      02127     movff WREG,pDwordOut+2
                      02128     movff WREG,pDwordOut+1
                      02129     byte_byte pByteIn,pDwordOut
                      02130     endm
                      02131 byte_bit macro pByteIn,pVarOut,pBitout
                      02132 if ((pByteIn & 0X0F00) == (pVarOut & 0X0F00))
                      02133     s@b pByteIn
                      02134     btfsc pByteIn,0
                      02135     bsf pVarOut,pBitout
                      02136     btfss pByteIn,0
                      02137     bcf pVarOut,pBitout
                      02138 else
                      02139 if ((pByteIn <= bankA_End) | (pByteIn >= 0X0F80))
                      02140     s@b pVarOut
                      02141     btfsc pByteIn,0
                      02142     bsf pVarOut,pBitout
                      02143     btfss pByteIn,0
                      02144     bcf pVarOut,pBitout
                      02145 else
                      02146 if ((pVarOut <= bankA_End) | (pVarOut >= 0X0F80))
                      02147     s@b pByteIn
                      02148     btfsc pByteIn,0
                      02149     bsf pVarOut,pBitout
                      02150     btfss pByteIn,0
                      02151     bcf pVarOut,pBitout
                      02152 else
                      02153     s@b pByteIn
                      02154     rrf pByteIn,W
                      02155     s@b pVarOut
                      02156     skpnc
                      02157     bsf pVarOut,pBitout
                      02158     skpc
                      02159     bcf pVarOut,pBitout
                      02160 endif
                      02161 endif
                      02162 endif
                      02163     r@b
                      02164     endm
                      02165 dword_wreg macro pDwordIn
                      02166     byte_wreg pDwordIn
                      02167     endm
                      02168 dword_byte macro pDwordIn,pByteOut
                      02169     byte_byte pDwordIn,pByteOut
                      02170     endm
                      02171 dword_word macro pDwordIn,pWordOut
                      02172     movff pDwordIn+1,pWordOut+1
                      02173     movff pDwordIn,pWordOut
                      02174     endm
                      02175 dword_dword macro pDwordIn,pDwordOut
                      02176     movff pDwordIn+3,pDwordOut+3
                      02177     movff pDwordIn+2,pDwordOut+2
                      02178     movff pDwordIn+1,pDwordOut+1
                      02179     movff pDwordIn,pDwordOut
                      02180     endm
                      02181 dword_bit macro pDwordIn,pVarOut,pBitout
                      02182     byte_bit pDwordIn,pVarOut,pBitout
                      02183     endm
                      02184 num_float macro pNumIn,pFloatOut
                      02185     num_byte pNumIn,pFloatOut+3
                      02186     num_byte ((pNumIn >> 8) & 255),pFloatOut+2
                      02187     num_byte ((pNumIn >> 16) & 255),pFloatOut+1
                      02188     num_byte ((pNumIn >> 24) & 255),pFloatOut
                      02189     endm
                      02190 wreg_float macro pFloatOut
                      02191     call INT08@TOFL32
                      02192     movff PP_AARG,pFloatOut
                      02193     movff PP_AARGH,pFloatOut+1
                      02194     movff PP_AARGHH,pFloatOut+2
                      02195     movff PP_AARGHHH,pFloatOut+3
                      02196     endm
                      02197 bit_float macro pVarin,pBitIn,pFloatOut
                      02198     bit_wreg pVarin,pBitIn
                      02199     call INT08@TOFL32
                      02200     movff PP_AARG,pFloatOut
                      02201     movff PP_AARGH,pFloatOut+1
                      02202     movff PP_AARGHH,pFloatOut+2
                      02203     movff PP_AARGHHH,pFloatOut+3
                      02204     endm
                      02205 byte_float macro pByteIn,pFloatOut
                      02206     byte_wreg pByteIn
                      02207     call INT08@TOFL32
                      02208     movff PP_AARG,pFloatOut
                      02209     movff PP_AARGH,pFloatOut+1
                      02210     movff PP_AARGHH,pFloatOut+2
                      02211     movff PP_AARGHHH,pFloatOut+3
                      02212     endm
                      02213 word_float macro pWordIn,pFloatOut
                      02214     byte_byte pWordIn,PP_AARG
                      02215     byte_byte pWordIn+1,PP_AARGH
                      02216     call INT16@TOFL32
                      02217     movff PP_AARG,pFloatOut
                      02218     movff PP_AARGH,pFloatOut+1
                      02219     movff PP_AARGHH,pFloatOut+2
                      02220     movff PP_AARGHHH,pFloatOut+3
                      02221     endm
                      02222 dword_float macro pDwordIn,pFloatOut
                      02223     movff pDwordIn,PP_AARG
                      02224     movff pDwordIn+1,PP_AARGH
                      02225     movff pDwordIn+2,PP_AARGHH
                      02226     movff pDwordIn+3,PP_AARGHHH
                      02227     call INT32@TOFL32
                      02228     movff PP_AARG,pFloatOut
                      02229     movff PP_AARGH,pFloatOut+1
                      02230     movff PP_AARGHH,pFloatOut+2
                      02231     movff PP_AARGHHH,pFloatOut+3
                      02232     endm
                      02233 float_float macro pFloatIn,pFloatOut
                      02234     movff pFloatIn,pFloatOut
                      02235     movff pFloatIn+1,pFloatOut+1
                      02236     movff pFloatIn+2,pFloatOut+2
                      02237     movff pFloatIn+3,pFloatOut+3
                      02238     endm
                      02239 float_wreg macro pFloatIn
                      02240     float_float pFloatIn,PP_AARG
                      02241     call FL32@TOINT32
                      02242     endm
                      02243 float_bit macro pFloatIn,pVarOut,pBitout
                      02244     float_float pFloatIn,PP_AARG
                      02245     call FL32@TOINT32
                      02246     wreg_bit pVarOut,pBitout
                      02247     endm
                      02248 float_byte macro pFloatIn,pByteOut
                      02249     float_float pFloatIn,PP_AARG
                      02250     call FL32@TOINT32
                      02251     wreg_byte pByteOut
                      02252     endm
                      02253 float_word macro pFloatIn,pWordOut
                      02254     float_float pFloatIn,PP_AARG
                      02255     call FL32@TOINT32
                      02256     movff PP_AARGHHH,pWordOut
                      02257     movff PP_AARGHH,pWordOut+1
                      02258     endm
                      02259 float_dword macro pFloatIn,pDwordOut
                      02260     float_float pFloatIn,PP_AARG
                      02261     call FL32@TOINT32
                      02262     movff PP_AARGHHH,pDwordOut
                      02263     movff PP_AARGHH,pDwordOut+1
                      02264     movff PP_AARGH,pDwordOut+2
                      02265     movff PP_AARG,pDwordOut+3
                      02266     endm
                      02267 num_FSR0 macro pNumIn
                      02268     lfsr 0,pNumIn
                      02269     endm
                      02270 num_FSR1 macro pNumIn
                      02271     lfsr 1,pNumIn
                      02272     endm
                      02273 num_FSR2 macro pNumIn
                      02274     lfsr 2,pNumIn
                      02275     endm
                      02276 label_word macro pLabelIn,pWordOut
                      02277     movlw (pLabelIn & 255)
                      02278     movff WREG, pWordOut
                      02279     movlw ((pLabelIn >> 8) & 255)
                      02280     movff WREG, pWordOut+1
                      02281     endm
                      02282 label_pointer macro pLabelIn
                      02283     movlw (pLabelIn & 255)
                      02284     movwf TBLPTRL
                      02285     movlw ((pLabelIn >> 8) & 255)
                      02286     movwf TBLPTRH
                      02287     movlw ((pLabelIn >> 16) & 255)
                      02288     movwf TBLPTRU
                      02289     endm
                      02290 wreg_sword macro pWordOut
                      02291     movff WREG,pWordOut
                      02292     s@b pWordOut+1
                      02293     clrf pWordOut+1
                      02294     btfsc WREG,7
                      02295     decf pWordOut+1,F
                      02296     r@b
                      02297     endm
                      02298 wreg_sdword macro pDwordOut
                      02299     movff WREG,pDwordOut
                      02300     s@b pDwordOut
                      02301     movlw 0
                      02302     btfsc pDwordOut,7
                      02303     movlw 255
                      02304     movff WREG,pDwordOut+1
                      02305     movff WREG,pDwordOut+2
                      02306     movff WREG,pDwordOut+3
                      02307     r@b
                      02308     endm
                      02309 byte_sword macro pByteIn,pWordOut
                      02310     movff pByteIn,pWordOut
                      02311     s@b pByteIn
                      02312     movlw 0
                      02313     btfsc pByteIn,7
                      02314     movlw 255
                      02315     movff WREG,pWordOut+1
                      02316     r@b
                      02317     endm
                      02318 byte_sdword macro pByteIn,pDwordOut
                      02319     movff pByteIn,pDwordOut
                      02320     s@b pByteIn
                      02321     movlw 0
                      02322     btfsc pByteIn,7
                      02323     movlw 255
                      02324     movff WREG,pDwordOut+1
                      02325     movff WREG,pDwordOut+2
                      02326     movff WREG,pDwordOut+3
                      02327     r@b
                      02328     endm
                      02329 word_sdword macro pWordIn,pDwordOut
                      02330     movff pWordIn,pDwordOut
                      02331     movff pWordIn+1,pDwordOut+1
                      02332     s@b pWordIn+1
                      02333     movlw 0
                      02334     btfsc pWordIn+1,7
                      02335     movlw 255
                      02336     movff WREG,pDwordOut+2
                      02337     movff WREG,pDwordOut+3
                      02338     r@b
                      02339     endm
  00000000            02341 GEN = 0
  00000001            02342 PBP#VAR0 = 1
  00000002            02343 PBP#VAR0H = 2
  00000003            02344 PBP#VAR0HH = 3
  00000004            02345 PBP#VAR0HHH = 4
  00000005            02346 PP0 = 5
  00000006            02347 PP0H = 6
  00000007            02348 PP1 = 7
  00000008            02349 PP1H = 8
  00000009            02350 PP2 = 9
  0000000A            02351 PP2H = 10
  0000000B            02352 PP3 = 11
  0000000C            02353 PP3H = 12
  0000000D            02354 PP4 = 13
  0000000E            02355 PP4H = 14
  0000000F            02356 PP5 = 15
  00000010            02357 PP7 = 16
  00000011            02358 PP7H = 17
  00000012            02359 SP#P9 = 18
  00000013            02360 TRANSPONDER_MODE = 19
  00000014            02361 TR_MD = 20
  00000015            02362 FREK1 = 21
  00000016            02363 FREK1H = 22
  00000017            02364 FREK2 = 23
  00000018            02365 FREK2H = 24
  00000019            02366 STP = 25
  0000001A            02367 STPH = 26
  0000001B            02368 REF = 27
  0000001C            02369 REFH = 28
  0000001D            02370 _A = 29
  0000001E            02371 _AH = 30
  0000001F            02372 _N = 31
  00000020            02373 _NH = 32
  00000021            02374 _R = 33
  00000022            02375 _RH = 34
  00000023            02376 _X = 35
  00000024            02377 _XH = 36
  00000025            02378 PRE = 37
  00000026            02379 PRE2 = 38
  00000027            02380 DataOut = 39
  00000028            02381 DataOutH = 40
  00000029            02382 DataOutHH = 41
  0000002A            02383 DataOutHHH = 42
  0000002B            02384 sayac = 43
  0000002C            02385 SaniyeBekle = 44
  0000002D            02386 TPS_Akim = 45
  0000002E            02387 TPS_AkimH = 46
  0000002F            02388 Pwm_val = 47
  00000030            02389 Cikis_Gucu = 48
  00000031            02390 Cikis_GucuH = 49
  00000032            02391 uS = 50
  00000033            02392 uSH = 51
  00000034            02393 mS = 52
  00000035            02394 mSH = 53
  00000036            02395 _S = 54
  00000037            02396 _SH = 55
  00000038            02397 mn = 56
  00000039            02398 hr = 57
  0000003A            02399 dy = 58
  0000003B            02400 DataIn = 59
  0000003C            02401 LastData = 60
  0000003D            02402 Slave_Address = 61
  0000003E            02403 I2C_Data = 62
  003E                02404 variable I2C_Data#0=62,I2C_Data#1=63,I2C_Data#2=64,I2C_Data#3=65
  0042                02405 variable I2C_Data#4=66,I2C_Data#5=67,I2C_Data#6=68,I2C_Data#7=69
  0046                02406 variable I2C_Data#8=70,I2C_Data#9=71
  00000048            02407 I2C_DataCount = 72
  00000049            02408 STATE_INFO = 73
  0000004A            02409 RESPONSE = 74
  0000004B            02410 DURUM = 75
  0000004C            02411 _B#VR1 = 76
  0000004D            02412 DutyCycle = 77
  0000004E            02413 say = 78
  0000004F            02414 _High__Context_Store = 79
  004F                02415 variable _High__Context_Store#0=79,_High__Context_Store#1=80,_High__Context_Store#2=81,_High__Context_Store#3=82
                      02416 #define __CCP1_PIN PORTC,2
                      02417 #define __CCP2_PIN PORTC,7
                      02418 #define AGC8317in PORTA,1
                      02419 #define ACS714_5V PORTA,2
                      02420 #define pllLD PORTA,3
                      02421 #define TPS2421en PORTA,4
                      02422 #define PWRled PORTA,5
                      02423 #define mySCL2 PORTB,1
                      02424 #define mySDA2 PORTB,2
                      02425 #define pllCLK PORTB,3
                      02426 #define pllDATA PORTB,4
                      02427 #define pllLE PORTB,5
                      02428 #define pllPSRF PORTB,6
                      02429 #define pllPSIF PORTB,7
                      02430 #define LD29300enable PORTC,0
                      02431 #define TPS3823WDI PORTC,1
                      02432 #define AD8317AGCset PORTC,2
                      02433 #define mySCL1 PORTC,3
                      02434 #define mySDA1 PORTC,4
                      02435 #define AD8317final PORTC,7
                      02436 #define GIE INTCON,7
                      02437 #define Timer1 TMR1L
                      02438 #define Timer1H TMR1LH
                      02439 #define TMR1_Enable PIE1,0
                      02440 #define TMR1_Overflow PIR1,0
                      02441 #define TMR1_On T1CON,0
                      02442 #define SSPIF PIR1,3
                      02443 #define SSPIP IPR1,3
                      02444 #define SSPIE PIE1,3
                      02445 #define BF SSPSTAT,0
                      02446 #define R_W SSPSTAT,2
                      02447 #define D_A SSPSTAT,5
                      02448 #define CKP SSPCON1,4
                      02449 #define SSPEN SSPCON1,5
                      02450 #define SSPOV SSPCON1,6
                      02451 #define WCOL SSPCON1,7
                      02452 #define SMP SSPSTAT,7
                      02453 #define SEN SSP1CON2,0
                      02454 #define AHEN SSP1CON3,1
                      02455 #define PEIE INTCON,6
                      02456 #define pllyaz_latch _B#VR1,0
                      02457 #define __XTAL 4
                      02458 #define UZAY 0
                      02459 #define LAB 1
                      02460 #define SA 3
                      02461 #define TR_ON 1
                      02462 #define TR_OFF 2
                      02463 #define TMR1_Val 64536
                      02464 #define TMR1_ValH 252
                      02465 #define TMR1_mS 1
000000                02466 proton#code#start
000000                02467         org 0
000000 EFAA F000      02468         goto proton#main#start
000008                02469         org 8
000008 EFF7 F000      02470         goto InterruptSection
00000C                02471 __HPWM_
00000C 6E0E           02472         movwf 14,0
00000E 0E42           02473         movlw 66
000010 6E05           02474         movwf 5,0
000012 0E0F           02475         movlw 15
000014 6E06           02476         movwf 6,0
000016 EC83 F000      02477         call __DIVIDE_U1616_
00001A B4D8           02478         btfsc 4056,2,0
00001C 90BA           02479         bcf 4026,PP_T2CKPS0,0
00001E A4D8           02480         btfss 4056,2,0
000020 80BA           02481         bsf 4026,PP_T2CKPS0,0
000022 0FFC           02482         addlw 252
000024 A0D8           02483         btfss 4056,0,0
000026 92BA           02484         bcf 4026,PP_T2CKPS1,0
000028 B0D8           02485         btfsc 4056,0,0
00002A 82BA           02486         bsf 4026,PP_T2CKPS1,0
00002C 0E40           02487         movlw 64
00002E 6E05           02488         movwf 5,0
000030 0E42           02489         movlw 66
000032 6E06           02490         movwf 6,0
000034 0E0F           02491         movlw 15
000036 6E09           02492         movwf 9,0
000038 6A0A           02493         clrf 10,0
00003A B0BA           02494         btfsc 4026,PP_T2CKPS0,0
00003C D827           02495         rcall HPW@2S
00003E B2BA           02496         btfsc 4026,PP_T2CKPS1,0
000040 D825           02497         rcall HPW@2S
000042 EC85 F000      02498         call __DIVIDE_INT_U1616_
000046 0405           02499         decf 5,W,0
000048 6EBB           02500         movwf 4027,0
00004A C005 F007      02501         movff 5,7
00004E C006 F008      02502         movff 6,8
000052 5000           02503         movf 0,W,0
000054 6E0B           02504         movwf 11,0
000056 6E0C           02505         movwf 12,0
000058 3C00           02506         incfsz 0,W,0
00005A 6A0C           02507         clrf 12,0
00005C EC9A F000      02508         call __MULTIPLY_U1616_
000060 500A           02509         movf 10,W,0
000062 2E0E           02510         decfsz 14,F,0
000064 D00A           02511         bra HPW@SK1
000066 6EBE           02512         movwf 4030,0
000068 0E0C           02513         movlw 12
00006A 6EBD           02514         movwf 4029,0
00006C BE09           02515         btfsc 9,7,0
00006E 8ABD           02516         bsf 4029,5,0
000070 BC09           02517         btfsc 9,6,0
000072 88BD           02518         bsf 4029,4,0
000074 9494           02519         bcf TRISC,2,0
000076                02520 HPWM@FIN
000076 84BA           02521         bsf 4026,PP_TMR2ON,0
000078 0012           02522         return
00007A                02523 HPW@SK1
00007A 6E67           02524         movwf 3943,0
00007C 0E0C           02525         movlw 12
00007E 6E66           02526         movwf 3942,0
000080 BE09           02527         btfsc 9,7,0
000082 8A66           02528         bsf 3942,5,0
000084 BC09           02529         btfsc 9,6,0
000086 8866           02530         bsf 3942,4,0
000088 9E94           02531         bcf TRISC,7,0
00008A D7F5           02532         bra HPWM@FIN
00008C                02533 HPW@2S
00008C D800           02534         rcall HPW@2L
00008E                02535 HPW@2L
00008E 90D8           02536         bcf 4056,0,0
000090 3209           02537         rrcf 9,F,0
000092 3206           02538         rrcf 6,F,0
000094 3205           02539         rrcf 5,F,0
000096 0012           02540         return
  00000032            02541 ADIN_STIME = 50
  00000003            02542 ADIN_TAD = 3
  0000000A            02543 ADIN_REQ = 10
000098                02544 __ADIN_
000098 36E8           02545         rlcf 4072,F,0
00009A 36E8           02546         rlcf 4072,F,0
00009C 0BFC           02547         andlw 252
00009E 0901           02548         iorlw 1
0000A0 12C2           02549         iorwf 4034,F,0
0000A2 09C0           02550         iorlw 192
0000A4 16C2           02551         andwf 4034,F,0
0000A6 50C0           02552         movf 4032,W,0
0000A8 0BF8           02553         andlw 248
0000AA 0903           02554         iorlw 3
0000AC 6EC0           02555         movwf 4032,0
0000AE 0E32           02556         movlw 50
0000B0 EC6F F000      02557         call __DELAY_US_
0000B4 82C2           02558         bsf 4034,PP_GO_DONE,0
0000B6 B2C2           02559         btfsc 4034,PP_GO_DONE,0
0000B8 D7FE           02560         bra $ - 2
0000BA CFC4 F011      02561         movff 4036,17
0000BE 50C3           02562         movf 4035,W,0
0000C0 6E10           02563         movwf 16,0
0000C2 0012           02564         return
0000C4                02565 __DELAY_MS_
0000C4 6A08           02566         clrf 8,0
0000C6                02567 __DELAY_MS_W_
0000C6 6E07           02568         movwf 7,0
0000C8                02569 DLY@P
0000C8 0EFF           02570         movlw 255
0000CA 2607           02571         addwf 7,F,0
0000CC 2208           02572         addwfc 8,F,0
0000CE D000           02573         bra $ + 2
0000D0 A0D8           02574         btfss 4056,0,0
0000D2 0012           02575         return
0000D4 0E03           02576         movlw 3
0000D6 6E06           02577         movwf 6,0
0000D8 0EDE           02578         movlw 222
0000DA D802           02579         rcall __DELAY_US_W_
0000DC D7F5           02580         bra DLY@P
0000DE                02581 __DELAY_US_
0000DE 6A06           02582         clrf 6,0
0000E0                02583 __DELAY_US_W_
0000E0 0FE9           02584         addlw 233
0000E2 6E05           02585         movwf 5,0
0000E4 0EFC           02586         movlw 252
0000E6 E305           02587         bnc $ + 12
0000E8 0000           02588         nop
0000EA 0000           02589         nop
0000EC 2605           02590         addwf 5,F,0
0000EE E2FD           02591         bc $ - 4
0000F0 0000           02592         nop
0000F2 2605           02593         addwf 5,F,0
0000F4 0606           02594         decf 6,F,0
0000F6 E2F9           02595         bc $ - 12
0000F8 B005           02596         btfsc 5,0,0
0000FA D000           02597         bra $ + 2
0000FC A205           02598         btfss 5,1,0
0000FE D002           02599         bra $ + 6
000100 D000           02600         bra $ + 2
000102 0000           02601         nop
000104 0012           02602         return
000106                02603 __DIVIDE_U1616_
000106 6A0A           02604         clrf 10,0
000108 6A09           02605         clrf 9,0
00010A                02606 __DIVIDE_INT_U1616_
00010A 0E10           02607         movlw 16
00010C 6EF3           02608         movwf 4083,0
00010E                02609 DV@LP
00010E 3406           02610         rlcf 6,W,0
000110 3609           02611         rlcf 9,F,0
000112 360A           02612         rlcf 10,F,0
000114 5007           02613         movf 7,W,0
000116 5C09           02614         subwf 9,W,0
000118 5008           02615         movf 8,W,0
00011A 580A           02616         subwfb 10,W,0
00011C E305           02617         bnc D@K
00011E 5007           02618         movf 7,W,0
000120 5E09           02619         subwf 9,F,0
000122 5008           02620         movf 8,W,0
000124 5A0A           02621         subwfb 10,F,0
000126 80D8           02622         bsf 4056,0,0
000128                02623 D@K
000128 3605           02624         rlcf 5,F,0
00012A 3606           02625         rlcf 6,F,0
00012C 2EF3           02626         decfsz 4083,F,0
00012E D7EF           02627         bra DV@LP
000130 5005           02628         movf 5,W,0
000132 0012           02629         return
000134                02630 __MULTIPLY_U1616_
000134 5007           02631         movf 7,W,0
000136 020B           02632         mulwf 11,0
000138 CFF3 F009      02633         movff 4083,9
00013C CFF4 F00A      02634         movff 4084,10
000140 5008           02635         movf 8,W,0
000142 020B           02636         mulwf 11,0
000144 50F3           02637         movf 4083,W,0
000146 260A           02638         addwf 10,F,0
000148 5007           02639         movf 7,W,0
00014A 020C           02640         mulwf 12,0
00014C 50F3           02641         movf 4083,W,0
00014E 260A           02642         addwf 10,F,0
000150 5009           02643         movf 9,W,0
000152 0012           02644         return
000154                02645 proton#main#start
000154 0100           02646         movlb 0
  00000156            02648 F2_SOF equ $ ; TRANSPONDER.PRP
  00000156            02649 F2_EOF equ $ ; TRANSPONDER.PRP
  00000156            02650 F1_SOF equ $ ; TRANSPONDER.BAS
  00000156            02651 F1_000051 equ $ ; IN [TRANSPONDER.BAS] TRANSPONDER_MODE = LAB
000156 0E01           02652         movlw 1
000158 6E13           02653         movwf TRANSPONDER_MODE,0
  0000015A            02654 F1_000057 equ $ ; IN [TRANSPONDER.BAS] TR_MD = TR_OFF
00015A 0E02           02655         movlw 2
00015C 6E14           02656         movwf TR_MD,0
  0000015E            02657 F1_000060 equ $ ; IN [TRANSPONDER.BAS] ALL_DIGITAL   = TRUE
00015E 6A79           02658         clrf CM1CON0,0
000160 6A78           02659         clrf CM2CON0,0
000162 6A79           02660         clrf CM1CON,0
000164 6A78           02661         clrf CM2CON,0
000166 0E0F           02662         movlw 15
000168 6EC1           02663         movwf ADCON1,0
00016A 010F           02664         movlb 15
  0000000F            02665 ram_bank = 15
00016C 6B38           02666         clrf ANSELA,1
00016E 6B39           02667         clrf ANSELB,1
000170 6B3A           02668         clrf ANSELC,1
  00000172            02669 F1_000071 equ $ ; IN [TRANSPONDER.BAS] TRISA.0 = 1
000172 8092           02670         bsf TRISA,0,0
  00000174            02671 F1_000072 equ $ ; IN [TRANSPONDER.BAS] TRISA.1 = 1
000174 8292           02672         bsf TRISA,1,0
  00000176            02673 F1_000073 equ $ ; IN [TRANSPONDER.BAS] TRISA.2 = 1
000176 8492           02674         bsf TRISA,2,0
  00000178            02675 F1_000074 equ $ ; IN [TRANSPONDER.BAS] TRISA.3 = 1
000178 8692           02676         bsf TRISA,3,0
  0000017A            02677 F1_000075 equ $ ; IN [TRANSPONDER.BAS] TRISA.4 = 0
00017A 9892           02678         bcf TRISA,4,0
  0000017C            02679 F1_000076 equ $ ; IN [TRANSPONDER.BAS] TRISA.5 = 0
00017C 9A92           02680         bcf TRISA,5,0
  0000017E            02681 F1_000078 equ $ ; IN [TRANSPONDER.BAS] TRISB.0 = 1
00017E 8093           02682         bsf TRISB,0,0
  00000180            02683 F1_000079 equ $ ; IN [TRANSPONDER.BAS] TRISB.1 = 1
000180 8293           02684         bsf TRISB,1,0
  00000182            02685 F1_000080 equ $ ; IN [TRANSPONDER.BAS] TRISB.2 = 1
000182 8493           02686         bsf TRISB,2,0
  00000184            02687 F1_000081 equ $ ; IN [TRANSPONDER.BAS] TRISB.3 = 0
000184 9693           02688         bcf TRISB,3,0
  00000186            02689 F1_000082 equ $ ; IN [TRANSPONDER.BAS] TRISB.4 = 0
000186 9893           02690         bcf TRISB,4,0
  00000188            02691 F1_000083 equ $ ; IN [TRANSPONDER.BAS] TRISB.5 = 0
000188 9A93           02692         bcf TRISB,5,0
  0000018A            02693 F1_000084 equ $ ; IN [TRANSPONDER.BAS] TRISB.6 = 0
00018A 9C93           02694         bcf TRISB,6,0
  0000018C            02695 F1_000085 equ $ ; IN [TRANSPONDER.BAS] TRISB.7 = 0
00018C 9E93           02696         bcf TRISB,7,0
  0000018E            02697 F1_000087 equ $ ; IN [TRANSPONDER.BAS] TRISC.0 = 0
00018E 9094           02698         bcf TRISC,0,0
  00000190            02699 F1_000088 equ $ ; IN [TRANSPONDER.BAS] TRISC.1 = 0
000190 9294           02700         bcf TRISC,1,0
  00000192            02701 F1_000089 equ $ ; IN [TRANSPONDER.BAS] TRISC.2 = 0
000192 9494           02702         bcf TRISC,2,0
  00000194            02703 F1_000090 equ $ ; IN [TRANSPONDER.BAS] TRISC.3 = 1
000194 8694           02704         bsf TRISC,3,0
  00000196            02705 F1_000091 equ $ ; IN [TRANSPONDER.BAS] TRISC.4 = 1
000196 8894           02706         bsf TRISC,4,0
  00000198            02707 F1_000092 equ $ ; IN [TRANSPONDER.BAS] TRISC.5 = 1
000198 8A94           02708         bsf TRISC,5,0
  0000019A            02709 F1_000093 equ $ ; IN [TRANSPONDER.BAS] TRISC.6 = 1
00019A 8C94           02710         bsf TRISC,6,0
  0000019C            02711 F1_000094 equ $ ; IN [TRANSPONDER.BAS] TRISC.7 = 0
00019C 9E94           02712         bcf TRISC,7,0
  0000019E            02713 F1_000133 equ $ ; IN [TRANSPONDER.BAS] SaniyeBekle = 15
00019E 6E2C           02714         movwf SaniyeBekle,0
  000001A0            02715 F1_000137 equ $ ; IN [TRANSPONDER.BAS] Pwm_val= 5
0001A0 0E05           02716         movlw 5
0001A2 6E2F           02717         movwf Pwm_val,0
  000001A4            02718 F1_000182 equ $ ; IN [TRANSPONDER.BAS] SEN = 1
0001A4 80C5           02719         bsf SSP1CON2,0,0
  000001A6            02720 F1_000191 equ $ ; IN [TRANSPONDER.BAS] DELAYMS 500
0001A6 0E01           02721         movlw 1
0001A8 6E08           02722         movwf PP1H,0
0001AA 0EF4           02723         movlw 244
                      02724         f@call __DELAY_MS_W_
  000001AE            02725 F1_000195 equ $ ; IN [TRANSPONDER.BAS] Slave_Address = $14
0001AE 0E14           02726         movlw 20
0001B0 6E3D           02727         movwf Slave_Address,0
  000001B2            02728 F1_000199 equ $ ; IN [TRANSPONDER.BAS] SSPADD = Slave_Address
0001B2 C03D FFC8      02729         movff Slave_Address,SSPADD
  000001B6            02730 F1_000200 equ $ ; IN [TRANSPONDER.BAS] SSPCON2 = 0
0001B6 6AC5           02731         clrf SSPCON2,0
  000001B8            02732 F1_000201 equ $ ; IN [TRANSPONDER.BAS] SSPCON1 = $36
0001B8 0E36           02733         movlw 54
0001BA 6EC6           02734         movwf SSPCON1,0
  000001BC            02735 F1_000205 equ $ ; IN [TRANSPONDER.BAS] I2C_DataCount = 0
0001BC 6A48           02736         clrf I2C_DataCount,0
  000001BE            02737 F1_000207 equ $ ; IN [TRANSPONDER.BAS] TMR1_Enable = 0
0001BE 909D           02738         bcf PIE1,0,0
  000001C0            02739 F1_000209 equ $ ; IN [TRANSPONDER.BAS] PEIE = 1
0001C0 8CF2           02740         bsf INTCON,6,0
  000001C2            02741 F1_000210 equ $ ; IN [TRANSPONDER.BAS] T1CON.1 = 0
0001C2 92CD           02742         bcf T1CON,1,0
  000001C4            02743 F1_000211 equ $ ; IN [TRANSPONDER.BAS] T1CON.4 = 0
0001C4 98CD           02744         bcf T1CON,4,0
  000001C6            02745 F1_000213 equ $ ; IN [TRANSPONDER.BAS] SSPIF = 0
0001C6 969E           02746         bcf PIR1,3,0
  000001C8            02747 F1_000214 equ $ ; IN [TRANSPONDER.BAS] SSPIE = 1
0001C8 869D           02748         bsf PIE1,3,0
  000001CA            02749 F1_000215 equ $ ; IN [TRANSPONDER.BAS] SMP = 1
0001CA 8EC7           02750         bsf SSPSTAT,7,0
  000001CC            02751 F1_000218 equ $ ; IN [TRANSPONDER.BAS] TMR1_Enable = 1
0001CC 809D           02752         bsf PIE1,0,0
  000001CE            02753 F1_000219 equ $ ; IN [TRANSPONDER.BAS] TMR1_On = 1
0001CE 80CD           02754         bsf T1CON,0,0
  000001D0            02755 F1_000221 equ $ ; IN [TRANSPONDER.BAS] GIE = 1
0001D0 8EF2           02756         bsf INTCON,7,0
  000001D2            02757 F1_000227 equ $ ; IN [TRANSPONDER.BAS] DURUM = 0
0001D2 6A4B           02758         clrf DURUM,0
  000001D4            02759 F1_000231 equ $ ; IN [TRANSPONDER.BAS] pllyaz_latch = 1
0001D4 804C           02760         bsf _B#VR1,0,0
  000001D6            02761 F1_000234 equ $ ; IN [TRANSPONDER.BAS] DutyCycle = 0
0001D6 6A4D           02762         clrf DutyCycle,0
  000001D8            02763 F1_000237 equ $ ; IN [TRANSPONDER.BAS] HPWM 1,Pwm_val,2000
0001D8 C02F F000      02764         movff Pwm_val,GEN
0001DC 0E07           02765         movlw 7
0001DE 6E08           02766         movwf PP1H,0
0001E0 0ED0           02767         movlw 208
0001E2 6E07           02768         movwf PP1,0
0001E4 0E01           02769         movlw 1
                      02770         f@call __HPWM_
  000001E8            02771 F1_000239 equ $ ; IN [TRANSPONDER.BAS] goto PreMain
0001E8 0100           02772         movlb 0
  00000000            02773 ram_bank = 0
                      02774         f@jump PreMain
0001EE                02775 InterruptSection
  000001EE            02776 F1_000244 equ $ ; IN [TRANSPONDER.BAS] CONTEXT SAVE
0001EE 0100           02777         movlb 0
0001F0 CFEA F04F      02778         movff FSR0H,_High__Context_Store#0
0001F4 CFE9 F050      02779         movff FSR0L,_High__Context_Store#1
0001F8 C001 F051      02780         movff PBP#VAR0,_High__Context_Store#2
0001FC C012 F052      02781         movff SP#P9,_High__Context_Store#3
  00000200            02782 F1_000246 equ $ ; IN [TRANSPONDER.BAS] GIE = 0
000200 9EF2           02783         bcf INTCON,7,0
  00000202            02784 F1_000248 equ $ ; IN [TRANSPONDER.BAS] if TMR1_Overflow = 1 AND TMR1_Enable = 1 THEN
000202 0E00           02785         movlw 0
000204 B09E           02786         btfsc PIR1,0,0
000206 0E01           02787         movlw 1
000208 6E12           02788         movwf SP#P9,0
00020A 0E00           02789         movlw 0
00020C B09D           02790         btfsc PIE1,0,0
00020E 0E01           02791         movlw 1
000210 1612           02792         andwf SP#P9,F,0
000212 B4D8           02793         btfsc STATUS,2,0
                      02794         go@to BC@LL3
  00000218            02795 F1_000249 equ $ ; IN [TRANSPONDER.BAS] TMR1_Enable = 0
000218 909D           02796         bcf PIE1,0,0
  0000021A            02797 F1_000250 equ $ ; IN [TRANSPONDER.BAS] Timer1 = Timer1 + TMR1_Val
00021A 0E18           02798         movlw 24
00021C 26CE           02799         addwf TMR1L,F,0
00021E 0EFC           02800         movlw 252
000220 22CF           02801         addwfc TMR1LH,F,0
  00000222            02802 F1_000251 equ $ ; IN [TRANSPONDER.BAS] TMR1_Enable = 1
000222 809D           02803         bsf PIE1,0,0
  00000224            02804 F1_000252 equ $ ; IN [TRANSPONDER.BAS] TMR1_Overflow = 0
000224 909E           02805         bcf PIR1,0,0
  00000226            02806 F1_000253 equ $ ; IN [TRANSPONDER.BAS] mS = mS + TMR1_mS
000226 4A34           02807         infsnz mS,F,0
000228 2A35           02808         incf mSH,F,0
  0000022A            02809 F1_000254 equ $ ; IN [TRANSPONDER.BAS] if mS >= 1000 THEN
00022A 0EE8           02810         movlw 232
00022C 5C34           02811         subwf mS,W,0
00022E 0E03           02812         movlw 3
000230 5835           02813         subwfb mSH,W,0
000232 A0D8           02814         btfss STATUS,0,0
                      02815         go@to BC@LL5
  00000238            02816 F1_000256 equ $ ; IN [TRANSPONDER.BAS] mS = 0
000238 6A35           02817         clrf mSH,0
00023A 6A34           02818         clrf mS,0
  0000023C            02819 F1_000257 equ $ ; IN [TRANSPONDER.BAS] S = S + 1
00023C 4A36           02820         infsnz _S,F,0
00023E 2A37           02821         incf _SH,F,0
  00000240            02822 F1_000258 equ $ ; IN [TRANSPONDER.BAS] if S >= 59 THEN
000240 5237           02823         movf _SH,F,0
000242 A4D8           02824         btfss STATUS,2,0
000244 D004           02825         bra CP@LB3
000246 0E3A           02826         movlw 58
000248 6436           02827         cpfsgt _S,0
                      02828         f@jump BC@LL7
00024E                02829 CP@LB3
  0000024E            02830 F1_000259 equ $ ; IN [TRANSPONDER.BAS] S = 0
00024E 6A37           02831         clrf _SH,0
000250 6A36           02832         clrf _S,0
  00000252            02833 F1_000260 equ $ ; IN [TRANSPONDER.BAS] mn = mn + 1
000252 2A38           02834         incf mn,F,0
  00000254            02835 F1_000261 equ $ ; IN [TRANSPONDER.BAS] if mn >= 59 THEN
000254 0E3A           02836         movlw 58
000256 6438           02837         cpfsgt mn,0
                      02838         f@jump BC@LL9
  0000025C            02839 F1_000262 equ $ ; IN [TRANSPONDER.BAS] mn = 0
00025C 6A38           02840         clrf mn,0
  0000025E            02841 F1_000263 equ $ ; IN [TRANSPONDER.BAS] hr = hr + 1
00025E 2A39           02842         incf hr,F,0
  00000260            02843 F1_000264 equ $ ; IN [TRANSPONDER.BAS] if hr >= 24 THEN
000260 0E17           02844         movlw 23
000262 6439           02845         cpfsgt hr,0
                      02846         f@jump BC@LL11
  00000268            02847 F1_000265 equ $ ; IN [TRANSPONDER.BAS] hr = 0
000268 6A39           02848         clrf hr,0
  0000026A            02849 F1_000266 equ $ ; IN [TRANSPONDER.BAS] dy = dy + 1
00026A 2A3A           02850         incf dy,F,0
  0000026C            02851 F1_000267 equ $ ; IN [TRANSPONDER.BAS] endif
00026C                02852 BC@LL11
  0000026C            02853 F1_000268 equ $ ; IN [TRANSPONDER.BAS] endif
00026C                02854 BC@LL9
  0000026C            02855 F1_000269 equ $ ; IN [TRANSPONDER.BAS] endif
00026C                02856 BC@LL7
  0000026C            02857 F1_000270 equ $ ; IN [TRANSPONDER.BAS] endif
00026C                02858 BC@LL5
  0000026C            02859 F1_000271 equ $ ; IN [TRANSPONDER.BAS] endif
00026C                02860 BC@LL3
  0000026C            02861 F1_000274 equ $ ; IN [TRANSPONDER.BAS] if SSPIF = 1 THEN
00026C A69E           02862         btfss PIR1,3,0
                      02863         go@to BC@LL13
  00000272            02864 F1_000275 equ $ ; IN [TRANSPONDER.BAS] SSPIF = 0
000272 969E           02865         bcf PIR1,3,0
  00000274            02866 F1_000277 equ $ ; IN [TRANSPONDER.BAS] if SSPSTAT.4 = 1 THEN I2C_DataCount = 0
000274 A8C7           02867         btfss SSPSTAT,4,0
                      02868         go@to BC@LL15
00027A 6A48           02869         clrf I2C_DataCount,0
00027C                02870 BC@LL15
  0000027C            02871 F1_000279 equ $ ; IN [TRANSPONDER.BAS] if R_W = 1 THEN
00027C A4C7           02872         btfss SSPSTAT,2,0
                      02873         go@to BC@LL17
  00000282            02874 F1_000281 equ $ ; IN [TRANSPONDER.BAS] SSP1BUF = 0
000282 6AC9           02875         clrf SSP1BUF,0
  00000284            02876 F1_000282 equ $ ; IN [TRANSPONDER.BAS] SSP1BUF = DURUM
000284 C04B FFC9      02877         movff DURUM,SSP1BUF
  00000288            02878 F1_000283 equ $ ; IN [TRANSPONDER.BAS] CKP = 1
000288 88C6           02879         bsf SSPCON1,4,0
                      02880         f@jump BC@LL18
00028E                02881 BC@LL17
  0000028E            02882 F1_000284 equ $ ; IN [TRANSPONDER.BAS] else
  0000028E            02883 F1_000285 equ $ ; IN [TRANSPONDER.BAS] DURUM = 0XFF
00028E 684B           02884         setf DURUM,0
  00000290            02885 F1_000286 equ $ ; IN [TRANSPONDER.BAS] if BF = 1 THEN
000290 A0C7           02886         btfss SSPSTAT,0,0
                      02887         go@to BC@LL20
  00000296            02888 F1_000289 equ $ ; IN [TRANSPONDER.BAS] LastData = SSPBUF
000296 CFC9 F03C      02889         movff SSPBUF,LastData
  0000029A            02890 F1_000290 equ $ ; IN [TRANSPONDER.BAS] I2C_Data[I2C_DataCount] = LastData
00029A EE00 F03E      02891         lfsr 0,I2C_Data
00029E 5048           02892         movf I2C_DataCount,W,0
0002A0 C03C FFEB      02893         movff LastData,PLUSW0
  000002A4            02894 F1_000291 equ $ ; IN [TRANSPONDER.BAS] S = 0
0002A4 6A37           02895         clrf _SH,0
0002A6 6A36           02896         clrf _S,0
  000002A8            02897 F1_000292 equ $ ; IN [TRANSPONDER.BAS] mn = 0
0002A8 6A38           02898         clrf mn,0
  000002AA            02899 F1_000293 equ $ ; IN [TRANSPONDER.BAS] hr   = 0
0002AA 6A39           02900         clrf hr,0
  000002AC            02901 F1_000294 equ $ ; IN [TRANSPONDER.BAS] dy    = 0
0002AC 6A3A           02902         clrf dy,0
  000002AE            02903 F1_000296 equ $ ; IN [TRANSPONDER.BAS] INC I2C_DataCount
0002AE 2A48           02904         incf I2C_DataCount,F,0
  000002B0            02905 F1_000297 equ $ ; IN [TRANSPONDER.BAS] if I2C_Data[0] = 0X15 THEN
0002B0 503E           02906         movf I2C_Data#0,W,0
0002B2 6E01           02907         movwf PBP#VAR0,0
0002B4 0E15           02908         movlw 21
0002B6 6201           02909         cpfseq PBP#VAR0,0
                      02910         f@jump BC@LL22
  000002BC            02911 F1_000299 equ $ ; IN [TRANSPONDER.BAS] TR_MD = TR_ON
0002BC 0E01           02912         movlw 1
0002BE 6E14           02913         movwf TR_MD,0
  000002C0            02914 F1_000301 equ $ ; IN [TRANSPONDER.BAS] DURUM = 0X0A
0002C0 0E0A           02915         movlw 10
0002C2 6E4B           02916         movwf DURUM,0
  000002C4            02917 F1_000302 equ $ ; IN [TRANSPONDER.BAS] I2C_DataCount = 0
0002C4 6A48           02918         clrf I2C_DataCount,0
  000002C6            02919 F1_000303 equ $ ; IN [TRANSPONDER.BAS] endif
0002C6                02920 BC@LL22
  000002C6            02921 F1_000304 equ $ ; IN [TRANSPONDER.BAS] if I2C_Data[0] = 0X16 THEN
0002C6 503E           02922         movf I2C_Data#0,W,0
0002C8 6E01           02923         movwf PBP#VAR0,0
0002CA 0E16           02924         movlw 22
0002CC 6201           02925         cpfseq PBP#VAR0,0
                      02926         f@jump BC@LL24
  000002D2            02927 F1_000306 equ $ ; IN [TRANSPONDER.BAS] TR_MD = TR_OFF
0002D2 0E02           02928         movlw 2
0002D4 6E14           02929         movwf TR_MD,0
  000002D6            02930 F1_000308 equ $ ; IN [TRANSPONDER.BAS] DURUM = 0X0A
0002D6 0E0A           02931         movlw 10
0002D8 6E4B           02932         movwf DURUM,0
  000002DA            02933 F1_000309 equ $ ; IN [TRANSPONDER.BAS] I2C_DataCount = 0
0002DA 6A48           02934         clrf I2C_DataCount,0
  000002DC            02935 F1_000310 equ $ ; IN [TRANSPONDER.BAS] endif
0002DC                02936 BC@LL24
  000002DC            02937 F1_000311 equ $ ; IN [TRANSPONDER.BAS] if I2C_Data[0] = 0X17 THEN
0002DC 503E           02938         movf I2C_Data#0,W,0
0002DE 6E01           02939         movwf PBP#VAR0,0
0002E0 0E17           02940         movlw 23
0002E2 6201           02941         cpfseq PBP#VAR0,0
                      02942         f@jump BC@LL26
  000002E8            02943 F1_000313 equ $ ; IN [TRANSPONDER.BAS] DURUM = 0XFF
0002E8 684B           02944         setf DURUM,0
  000002EA            02945 F1_000314 equ $ ; IN [TRANSPONDER.BAS] if TR_MD = TR_ON  THEN DURUM = 0X15
0002EA 2C14           02946         decfsz TR_MD,W,0
                      02947         f@jump BC@LL28
0002F0 0E15           02948         movlw 21
0002F2 6E4B           02949         movwf DURUM,0
0002F4                02950 BC@LL28
  000002F4            02951 F1_000315 equ $ ; IN [TRANSPONDER.BAS] if TR_MD = TR_OFF THEN DURUM = 0X16
0002F4 0E02           02952         movlw 2
0002F6 6214           02953         cpfseq TR_MD,0
                      02954         f@jump BC@LL30
0002FC 0E16           02955         movlw 22
0002FE 6E4B           02956         movwf DURUM,0
000300                02957 BC@LL30
  00000300            02958 F1_000316 equ $ ; IN [TRANSPONDER.BAS] I2C_DataCount = 0
000300 6A48           02959         clrf I2C_DataCount,0
  00000302            02960 F1_000317 equ $ ; IN [TRANSPONDER.BAS] endif
000302                02961 BC@LL26
  00000302            02962 F1_000318 equ $ ; IN [TRANSPONDER.BAS] if I2C_Data[0] = 0X18 THEN
000302 503E           02963         movf I2C_Data#0,W,0
000304 6E01           02964         movwf PBP#VAR0,0
000306 0E18           02965         movlw 24
000308 6201           02966         cpfseq PBP#VAR0,0
                      02967         f@jump BC@LL32
  0000030E            02968 F1_000320 equ $ ; IN [TRANSPONDER.BAS] DURUM = TPS_Akim
00030E C02D F04B      02969         movff TPS_Akim,DURUM
  00000312            02970 F1_000321 equ $ ; IN [TRANSPONDER.BAS] I2C_DataCount = 0
000312 6A48           02971         clrf I2C_DataCount,0
  00000314            02972 F1_000322 equ $ ; IN [TRANSPONDER.BAS] endif
000314                02973 BC@LL32
  00000314            02974 F1_000323 equ $ ; IN [TRANSPONDER.BAS] if I2C_Data[0] = 0X1A THEN
000314 503E           02975         movf I2C_Data#0,W,0
000316 6E01           02976         movwf PBP#VAR0,0
000318 0E1A           02977         movlw 26
00031A 6201           02978         cpfseq PBP#VAR0,0
                      02979         f@jump BC@LL34
  00000320            02980 F1_000325 equ $ ; IN [TRANSPONDER.BAS] Pwm_val = 5
000320 0E05           02981         movlw 5
000322 6E2F           02982         movwf Pwm_val,0
  00000324            02983 F1_000326 equ $ ; IN [TRANSPONDER.BAS] DURUM = Pwm_val
000324 C02F F04B      02984         movff Pwm_val,DURUM
  00000328            02985 F1_000327 equ $ ; IN [TRANSPONDER.BAS] I2C_DataCount = 0
000328 6A48           02986         clrf I2C_DataCount,0
  0000032A            02987 F1_000328 equ $ ; IN [TRANSPONDER.BAS] endif
00032A                02988 BC@LL34
  0000032A            02989 F1_000329 equ $ ; IN [TRANSPONDER.BAS] if I2C_Data[0] = 0X1B THEN
00032A 503E           02990         movf I2C_Data#0,W,0
00032C 6E01           02991         movwf PBP#VAR0,0
00032E 0E1B           02992         movlw 27
000330 6201           02993         cpfseq PBP#VAR0,0
                      02994         f@jump BC@LL36
  00000336            02995 F1_000331 equ $ ; IN [TRANSPONDER.BAS] Pwm_val = 64
000336 0E40           02996         movlw 64
000338 6E2F           02997         movwf Pwm_val,0
  0000033A            02998 F1_000332 equ $ ; IN [TRANSPONDER.BAS] DURUM = Pwm_val
00033A C02F F04B      02999         movff Pwm_val,DURUM
  0000033E            03000 F1_000333 equ $ ; IN [TRANSPONDER.BAS] I2C_DataCount = 0
00033E 6A48           03001         clrf I2C_DataCount,0
  00000340            03002 F1_000334 equ $ ; IN [TRANSPONDER.BAS] endif
000340                03003 BC@LL36
  00000340            03004 F1_000335 equ $ ; IN [TRANSPONDER.BAS] if I2C_Data[0] = 0X1C THEN
000340 503E           03005         movf I2C_Data#0,W,0
000342 6E01           03006         movwf PBP#VAR0,0
000344 0E1C           03007         movlw 28
000346 6201           03008         cpfseq PBP#VAR0,0
                      03009         f@jump BC@LL38
  0000034C            03010 F1_000337 equ $ ; IN [TRANSPONDER.BAS] Pwm_val = 127
00034C 0E7F           03011         movlw 127
00034E 6E2F           03012         movwf Pwm_val,0
  00000350            03013 F1_000338 equ $ ; IN [TRANSPONDER.BAS] DURUM = Pwm_val
000350 C02F F04B      03014         movff Pwm_val,DURUM
  00000354            03015 F1_000339 equ $ ; IN [TRANSPONDER.BAS] I2C_DataCount = 0
000354 6A48           03016         clrf I2C_DataCount,0
  00000356            03017 F1_000340 equ $ ; IN [TRANSPONDER.BAS] endif
000356                03018 BC@LL38
  00000356            03019 F1_000341 equ $ ; IN [TRANSPONDER.BAS] if I2C_Data[0] = 0X20 THEN
000356 503E           03020         movf I2C_Data#0,W,0
000358 6E01           03021         movwf PBP#VAR0,0
00035A 0E20           03022         movlw 32
00035C 6201           03023         cpfseq PBP#VAR0,0
                      03024         f@jump BC@LL40
  00000362            03025 F1_000343 equ $ ; IN [TRANSPONDER.BAS] DURUM = Cikis_Gucu
000362 C030 F04B      03026         movff Cikis_Gucu,DURUM
  00000366            03027 F1_000344 equ $ ; IN [TRANSPONDER.BAS] I2C_DataCount = 0
000366 6A48           03028         clrf I2C_DataCount,0
  00000368            03029 F1_000345 equ $ ; IN [TRANSPONDER.BAS] endif
000368                03030 BC@LL40
  00000368            03031 F1_000346 equ $ ; IN [TRANSPONDER.BAS] if SSPOV = 1 THEN SSPOV = 0
000368 ACC6           03032         btfss SSPCON1,6,0
                      03033         go@to BC@LL42
00036E 9CC6           03034         bcf SSPCON1,6,0
000370                03035 BC@LL42
  00000370            03036 F1_000348 equ $ ; IN [TRANSPONDER.BAS] endif
000370                03037 BC@LL20
  00000370            03038 F1_000349 equ $ ; IN [TRANSPONDER.BAS] endif
000370                03039 BC@LL18
  00000370            03040 F1_000351 equ $ ; IN [TRANSPONDER.BAS] if R_W = 0 AND SSPOV = 1 THEN  SSPOV = 0
000370 0E01           03041         movlw 1
000372 B4C7           03042         btfsc SSPSTAT,2,0
000374 0E00           03043         movlw 0
000376 6E12           03044         movwf SP#P9,0
000378 0E00           03045         movlw 0
00037A BCC6           03046         btfsc SSPCON1,6,0
00037C 0E01           03047         movlw 1
00037E 1612           03048         andwf SP#P9,F,0
000380 B4D8           03049         btfsc STATUS,2,0
                      03050         go@to BC@LL44
000386 9CC6           03051         bcf SSPCON1,6,0
000388                03052 BC@LL44
  00000388            03053 F1_000352 equ $ ; IN [TRANSPONDER.BAS] CKP = 1
000388 88C6           03054         bsf SSPCON1,4,0
  0000038A            03055 F1_000353 equ $ ; IN [TRANSPONDER.BAS] if R_W = 1 AND WCOL = 1 THEN WCOL = 0
00038A 0E00           03056         movlw 0
00038C B4C7           03057         btfsc SSPSTAT,2,0
00038E 0E01           03058         movlw 1
000390 6E12           03059         movwf SP#P9,0
000392 0E00           03060         movlw 0
000394 BEC6           03061         btfsc SSPCON1,7,0
000396 0E01           03062         movlw 1
000398 1612           03063         andwf SP#P9,F,0
00039A B4D8           03064         btfsc STATUS,2,0
                      03065         go@to BC@LL46
0003A0 9EC6           03066         bcf SSPCON1,7,0
0003A2                03067 BC@LL46
  000003A2            03068 F1_000354 equ $ ; IN [TRANSPONDER.BAS] endif
0003A2                03069 BC@LL13
  000003A2            03070 F1_000357 equ $ ; IN [TRANSPONDER.BAS] GIE = 1
0003A2 8EF2           03071         bsf INTCON,7,0
  000003A4            03072 F1_000359 equ $ ; IN [TRANSPONDER.BAS] CONTEXT RESTORE
0003A4 C04F FFEA      03073         movff _High__Context_Store#0,FSR0H
0003A8 C050 FFE9      03074         movff _High__Context_Store#1,FSR0L
0003AC C051 F001      03075         movff _High__Context_Store#2,PBP#VAR0
0003B0 C052 F012      03076         movff _High__Context_Store#3,SP#P9
0003B4 0011           03077         retfie 1
0003B6                03078 PreMain
  000003B6            03079 F1_000363 equ $ ; IN [TRANSPONDER.BAS] S = 0
0003B6 6A37           03080         clrf _SH,0
0003B8 6A36           03081         clrf _S,0
  000003BA            03082 F1_000364 equ $ ; IN [TRANSPONDER.BAS] mn = 0
0003BA 6A38           03083         clrf mn,0
  000003BC            03084 F1_000365 equ $ ; IN [TRANSPONDER.BAS] hr   = 0
0003BC 6A39           03085         clrf hr,0
  000003BE            03086 F1_000366 equ $ ; IN [TRANSPONDER.BAS] dy    = 0
0003BE 6A3A           03087         clrf dy,0
  000003C0            03088 F1_000369 equ $ ; IN [TRANSPONDER.BAS] low pllPSRF
0003C0 9C93           03089         bcf TRISB,6,0
0003C2 9C8A           03090         bcf LATB,6,0
  000003C4            03091 F1_000370 equ $ ; IN [TRANSPONDER.BAS] low pllPSIF
0003C4 9E93           03092         bcf TRISB,7,0
0003C6 9E8A           03093         bcf LATB,7,0
  000003C8            03094 F1_000371 equ $ ; IN [TRANSPONDER.BAS] DELAYMS 10
0003C8 0E0A           03095         movlw 10
                      03096         f@call __DELAY_MS_
  000003CC            03097 F1_000372 equ $ ; IN [TRANSPONDER.BAS] low pllLE
0003CC 9A93           03098         bcf TRISB,5,0
0003CE 9A8A           03099         bcf LATB,5,0
  000003D0            03100 F1_000373 equ $ ; IN [TRANSPONDER.BAS] high pllPSRF
0003D0 9C93           03101         bcf TRISB,6,0
0003D2 8C8A           03102         bsf LATB,6,0
  000003D4            03103 F1_000374 equ $ ; IN [TRANSPONDER.BAS] high pllPSIF
0003D4 9E93           03104         bcf TRISB,7,0
0003D6 8E8A           03105         bsf LATB,7,0
  000003D8            03106 F1_000379 equ $ ; IN [TRANSPONDER.BAS] if TRANSPONDER_MODE = LAB THEN
0003D8 2C13           03107         decfsz TRANSPONDER_MODE,W,0
                      03108         f@jump BC@LL48
  000003DE            03109 F1_000380 equ $ ; IN [TRANSPONDER.BAS] low  TPS2421en
0003DE 9892           03110         bcf TRISA,4,0
0003E0 9889           03111         bcf LATA,4,0
  000003E2            03112 F1_000381 equ $ ; IN [TRANSPONDER.BAS] high LD29300enable
0003E2 9094           03113         bcf TRISC,0,0
0003E4 808B           03114         bsf LATC,0,0
  000003E6            03115 F1_000382 equ $ ; IN [TRANSPONDER.BAS] TR_MD = TR_ON
0003E6 0E01           03116         movlw 1
0003E8 6E14           03117         movwf TR_MD,0
  000003EA            03118 F1_000383 equ $ ; IN [TRANSPONDER.BAS] endif
0003EA                03119 BC@LL48
  000003EA            03120 F1_000385 equ $ ; IN [TRANSPONDER.BAS] GOSUB Pll_Programla
                      03121         f@call Pll_Programla
0003EE                03122 Main
  000003EE            03123 F1_000388 equ $ ; IN [TRANSPONDER.BAS] if dy >= 14 THEN
0003EE 0E0D           03124         movlw 13
0003F0 643A           03125         cpfsgt dy,0
                      03126         f@jump BC@LL50
  000003F6            03127 F1_000389 equ $ ; IN [TRANSPONDER.BAS] if dy < 20 THEN
0003F6 0E14           03128         movlw 20
0003F8 603A           03129         cpfslt dy,0
                      03130         f@jump BC@LL52
  000003FE            03131 F1_000390 equ $ ; IN [TRANSPONDER.BAS] TR_MD = TR_ON
0003FE 0E01           03132         movlw 1
000400 6E14           03133         movwf TR_MD,0
  00000402            03134 F1_000391 equ $ ; IN [TRANSPONDER.BAS] if mn  > 5 THEN
000402 0E06           03135         movlw 6
000404 5C38           03136         subwf mn,W,0
000406 A0D8           03137         btfss STATUS,0,0
                      03138         go@to BC@LL54
  0000040C            03139 F1_000392 equ $ ; IN [TRANSPONDER.BAS] TR_MD = TR_OFF
00040C 0E02           03140         movlw 2
00040E 6E14           03141         movwf TR_MD,0
                      03142         f@jump BC@LL53
  00000414            03143 F1_000393 equ $ ; IN [TRANSPONDER.BAS] else if mn > 15 THEN
000414                03144 BC@LL54
000414 0E10           03145         movlw 16
000416 5C38           03146         subwf mn,W,0
000418 A0D8           03147         btfss STATUS,0,0
                      03148         go@to BC@LL55
  0000041E            03149 F1_000394 equ $ ; IN [TRANSPONDER.BAS] TR_MD = TR_ON
00041E 0E01           03150         movlw 1
000420 6E14           03151         movwf TR_MD,0
                      03152         f@jump BC@LL53
  00000426            03153 F1_000395 equ $ ; IN [TRANSPONDER.BAS] else if mn > 20 THEN
000426                03154 BC@LL55
000426 0E15           03155         movlw 21
000428 5C38           03156         subwf mn,W,0
00042A A0D8           03157         btfss STATUS,0,0
                      03158         go@to BC@LL56
  00000430            03159 F1_000396 equ $ ; IN [TRANSPONDER.BAS] TR_MD = TR_OFF
000430 0E02           03160         movlw 2
000432 6E14           03161         movwf TR_MD,0
                      03162         f@jump BC@LL53
  00000438            03163 F1_000397 equ $ ; IN [TRANSPONDER.BAS] else if mn > 30 THEN
000438                03164 BC@LL56
000438 0E1F           03165         movlw 31
00043A 5C38           03166         subwf mn,W,0
00043C A0D8           03167         btfss STATUS,0,0
                      03168         go@to BC@LL57
  00000442            03169 F1_000398 equ $ ; IN [TRANSPONDER.BAS] TR_MD = TR_ON
000442 0E01           03170         movlw 1
000444 6E14           03171         movwf TR_MD,0
                      03172         f@jump BC@LL53
  0000044A            03173 F1_000399 equ $ ; IN [TRANSPONDER.BAS] else if mn > 35 THEN
00044A                03174 BC@LL57
00044A 0E24           03175         movlw 36
00044C 5C38           03176         subwf mn,W,0
00044E A0D8           03177         btfss STATUS,0,0
                      03178         go@to BC@LL58
  00000454            03179 F1_000400 equ $ ; IN [TRANSPONDER.BAS] TR_MD = TR_OFF
000454 0E02           03180         movlw 2
000456 6E14           03181         movwf TR_MD,0
                      03182         f@jump BC@LL53
  0000045C            03183 F1_000401 equ $ ; IN [TRANSPONDER.BAS] else if mn > 45 THEN
00045C                03184 BC@LL58
00045C 0E2E           03185         movlw 46
00045E 5C38           03186         subwf mn,W,0
000460 A0D8           03187         btfss STATUS,0,0
                      03188         go@to BC@LL59
  00000466            03189 F1_000402 equ $ ; IN [TRANSPONDER.BAS] TR_MD = TR_ON
000466 0E01           03190         movlw 1
000468 6E14           03191         movwf TR_MD,0
                      03192         f@jump BC@LL53
  0000046E            03193 F1_000403 equ $ ; IN [TRANSPONDER.BAS] else if mn > 50 THEN
00046E                03194 BC@LL59
00046E 0E33           03195         movlw 51
000470 5C38           03196         subwf mn,W,0
000472 A0D8           03197         btfss STATUS,0,0
                      03198         go@to BC@LL60
  00000478            03199 F1_000404 equ $ ; IN [TRANSPONDER.BAS] TR_MD = TR_OFF
000478 0E02           03200         movlw 2
00047A 6E14           03201         movwf TR_MD,0
  0000047C            03202 F1_000405 equ $ ; IN [TRANSPONDER.BAS] endif
00047C                03203 BC@LL60
00047C                03204 BC@LL53
                      03205         f@jump BC@LL61
000480                03206 BC@LL52
  00000480            03207 F1_000406 equ $ ; IN [TRANSPONDER.BAS] else
  00000480            03208 F1_000407 equ $ ; IN [TRANSPONDER.BAS] TR_MD = TR_OFF
000480 0E02           03209         movlw 2
000482 6E14           03210         movwf TR_MD,0
  00000484            03211 F1_000409 equ $ ; IN [TRANSPONDER.BAS] dy = 7
000484 0E07           03212         movlw 7
000486 6E3A           03213         movwf dy,0
  00000488            03214 F1_000410 equ $ ; IN [TRANSPONDER.BAS] endif
000488                03215 BC@LL61
  00000488            03216 F1_000411 equ $ ; IN [TRANSPONDER.BAS] endif
000488                03217 BC@LL50
  00000488            03218 F1_000417 equ $ ; IN [TRANSPONDER.BAS] FOR say = 1 TO 20
000488 0E01           03219         movlw 1
00048A 6E4E           03220         movwf say,0
00048C                03221 FR@LB62
00048C 0E15           03222         movlw 21
00048E 604E           03223         cpfslt say,0
                      03224         f@jump NX@LB63
  00000494            03225 F1_000419 equ $ ; IN [TRANSPONDER.BAS] if TR_MD = TR_ON THEN
000494 2C14           03226         decfsz TR_MD,W,0
                      03227         f@jump BC@LL66
  0000049A            03228 F1_000420 equ $ ; IN [TRANSPONDER.BAS] low  TPS2421en
00049A 9892           03229         bcf TRISA,4,0
00049C 9889           03230         bcf LATA,4,0
  0000049E            03231 F1_000421 equ $ ; IN [TRANSPONDER.BAS] high LD29300enable
00049E 9094           03232         bcf TRISC,0,0
0004A0 808B           03233         bsf LATC,0,0
                      03234         f@jump BC@LL67
0004A6                03235 BC@LL66
  000004A6            03236 F1_000422 equ $ ; IN [TRANSPONDER.BAS] else
  000004A6            03237 F1_000423 equ $ ; IN [TRANSPONDER.BAS] high TPS2421en
0004A6 9892           03238         bcf TRISA,4,0
0004A8 8889           03239         bsf LATA,4,0
  000004AA            03240 F1_000424 equ $ ; IN [TRANSPONDER.BAS] low LD29300enable
0004AA 9094           03241         bcf TRISC,0,0
0004AC 908B           03242         bcf LATC,0,0
  000004AE            03243 F1_000426 equ $ ; IN [TRANSPONDER.BAS] endif
0004AE                03244 BC@LL67
  000004AE            03245 F1_000428 equ $ ; IN [TRANSPONDER.BAS] TPS_Akim = ADIN 1
0004AE 0E01           03246         movlw 1
                      03247         f@call __ADIN_
0004B4 6E2D           03248         movwf TPS_Akim,0
0004B6 C011 F02E      03249         movff PP7H,TPS_AkimH
  000004BA            03250 F1_000429 equ $ ; IN [TRANSPONDER.BAS] TPS_Akim = TPS_Akim >> 2
0004BA 90D8           03251         bcf STATUS,0,0
0004BC 322E           03252         rrcf TPS_AkimH,F,0
0004BE 322D           03253         rrcf TPS_Akim,F,0
0004C0 90D8           03254         bcf STATUS,0,0
0004C2 322E           03255         rrcf TPS_AkimH,F,0
0004C4 322D           03256         rrcf TPS_Akim,F,0
  000004C6            03257 F1_000433 equ $ ; IN [TRANSPONDER.BAS] Cikis_Gucu = ADIN 2
0004C6 0E02           03258         movlw 2
                      03259         f@call __ADIN_
0004CC 6E30           03260         movwf Cikis_Gucu,0
0004CE C011 F031      03261         movff PP7H,Cikis_GucuH
  000004D2            03262 F1_000434 equ $ ; IN [TRANSPONDER.BAS] Cikis_Gucu = Cikis_Gucu >> 2
0004D2 90D8           03263         bcf STATUS,0,0
0004D4 3231           03264         rrcf Cikis_GucuH,F,0
0004D6 3230           03265         rrcf Cikis_Gucu,F,0
0004D8 90D8           03266         bcf STATUS,0,0
0004DA 3231           03267         rrcf Cikis_GucuH,F,0
0004DC 3230           03268         rrcf Cikis_Gucu,F,0
  000004DE            03269 F1_000448 equ $ ; IN [TRANSPONDER.BAS] DELAYMS 250
0004DE 0EFA           03270         movlw 250
                      03271         f@call __DELAY_MS_
  000004E4            03272 F1_000449 equ $ ; IN [TRANSPONDER.BAS] TOGGLE TPS3823WDI
0004E4 7282           03273         btg PORTC,1,0
0004E6 9294           03274         bcf TRISC,1,0
  000004E8            03275 F1_000450 equ $ ; IN [TRANSPONDER.BAS] DELAYMS 250
0004E8 0EFA           03276         movlw 250
                      03277         f@call __DELAY_MS_
  000004EE            03278 F1_000451 equ $ ; IN [TRANSPONDER.BAS] TOGGLE TPS3823WDI
0004EE 7282           03279         btg PORTC,1,0
0004F0 9294           03280         bcf TRISC,1,0
  000004F2            03281 F1_000452 equ $ ; IN [TRANSPONDER.BAS] TOGGLE PORTB.0
0004F2 7081           03282         btg PORTB,0,0
0004F4 9093           03283         bcf TRISB,0,0
0004F6                03284 CT@LB64
  000004F6            03285 F1_000453 equ $ ; IN [TRANSPONDER.BAS] NEXT say
0004F6 2A4E           03286         incf say,F,0
0004F8 A0D8           03287         btfss STATUS,0,0
                      03288         go@to FR@LB62
0004FC                03289 NX@LB63
  000004FC            03290 F1_000456 equ $ ; IN [TRANSPONDER.BAS] GOSUB Pll_Programla
                      03291         f@call Pll_Programla
  00000500            03292 F1_000465 equ $ ; IN [TRANSPONDER.BAS] goto Main
                      03293         f@jump Main
000502                03294 Pll_Programla
  00000502            03295 F1_000476 equ $ ; IN [TRANSPONDER.BAS] DataOut =  %000000000000000100110000010000
000502 6A2A           03296         clrf DataOutHHH,0
000504 6A29           03297         clrf DataOutHH,0
000506 0E4C           03298         movlw 76
000508 6E28           03299         movwf DataOutH,0
00050A 0E10           03300         movlw 16
00050C 6E27           03301         movwf DataOut,0
  0000050E            03302 F1_000477 equ $ ; IN [TRANSPONDER.BAS] GOSUB Pllgonder
                      03303         f@call Pllgonder
  00000512            03304 F1_000480 equ $ ; IN [TRANSPONDER.BAS] DataOut =  %000000001101100000011110101101
000512 6A2A           03305         clrf DataOutHHH,0
000514 0E36           03306         movlw 54
000516 6E29           03307         movwf DataOutHH,0
000518 0E07           03308         movlw 7
00051A 6E28           03309         movwf DataOutH,0
00051C 0EAD           03310         movlw 173
00051E 6E27           03311         movwf DataOut,0
  00000520            03312 F1_000481 equ $ ; IN [TRANSPONDER.BAS] GOSUB     Pllgonder
                      03313         f@call Pllgonder
  00000524            03314 F1_000486 equ $ ; IN [TRANSPONDER.BAS] DataOut =  %000000010000000010100000010000
000524 6A2A           03315         clrf DataOutHHH,0
000526 0E40           03316         movlw 64
000528 6E29           03317         movwf DataOutHH,0
00052A 0E28           03318         movlw 40
00052C 6E28           03319         movwf DataOutH,0
00052E 0E10           03320         movlw 16
000530 6E27           03321         movwf DataOut,0
  00000532            03322 F1_000487 equ $ ; IN [TRANSPONDER.BAS] GOSUB Pllgonder
                      03323         f@call Pllgonder
  00000536            03324 F1_000490 equ $ ; IN [TRANSPONDER.BAS] DataOut =  %000000011011111101010011011000
000536 6A2A           03325         clrf DataOutHHH,0
000538 0E6F           03326         movlw 111
00053A 6E29           03327         movwf DataOutHH,0
00053C 0ED4           03328         movlw 212
00053E 6E28           03329         movwf DataOutH,0
000540 0ED8           03330         movlw 216
000542 6E27           03331         movwf DataOut,0
  00000544            03332 F1_000491 equ $ ; IN [TRANSPONDER.BAS] GOSUB     Pllgonder
                      03333         f@call Pllgonder
  00000548            03334 F1_000493 equ $ ; IN [TRANSPONDER.BAS] return
000548 0012           03335         return 0
00054A                03336 Pllgonder
  0000054A            03337 F1_000503 equ $ ; IN [TRANSPONDER.BAS] FOR sayac = 1 TO 23
00054A 0E01           03338         movlw 1
00054C 6E2B           03339         movwf sayac,0
00054E                03340 FR@LB68
00054E 0E18           03341         movlw 24
000550 602B           03342         cpfslt sayac,0
                      03343         f@jump NX@LB69
  00000556            03344 F1_000504 equ $ ; IN [TRANSPONDER.BAS] low pllDATA
000556 9893           03345         bcf TRISB,4,0
000558 988A           03346         bcf LATB,4,0
  0000055A            03347 F1_000505 equ $ ; IN [TRANSPONDER.BAS] if (DataOut & 1) = 1 THEN high pllDATA
00055A 0E01           03348         movlw 1
00055C 1427           03349         andwf DataOut,W,0
00055E 6A04           03350         clrf PBP#VAR0HHH,0
000560 6A03           03351         clrf PBP#VAR0HH,0
000562 6A02           03352         clrf PBP#VAR0H,0
000564 6E01           03353         movwf PBP#VAR0,0
000566 0401           03354         decf PBP#VAR0,W,0
000568 1002           03355         iorwf PBP#VAR0H,W,0
00056A 1003           03356         iorwf PBP#VAR0HH,W,0
00056C 1004           03357         iorwf PBP#VAR0HHH,W,0
00056E A4D8           03358         btfss STATUS,2,0
                      03359         go@to BC@LL72
000574 9893           03360         bcf TRISB,4,0
000576 888A           03361         bsf LATB,4,0
000578                03362 BC@LL72
  00000578            03363 F1_000506 equ $ ; IN [TRANSPONDER.BAS] DataOut = DataOut >> 1
000578 90D8           03364         bcf STATUS,0,0
00057A 322A           03365         rrcf DataOutHHH,F,0
00057C 3229           03366         rrcf DataOutHH,F,0
00057E 3228           03367         rrcf DataOutH,F,0
000580 3227           03368         rrcf DataOut,F,0
  00000582            03369 F1_000507 equ $ ; IN [TRANSPONDER.BAS] DELAYUS 10
000582 0E03           03370         movlw 3
000584 2EE8           03371         decfsz WREG,F,0
000586 D7FE           03372         bra $ - 2
000588 0000           03373         nop
00058A 0000           03374         nop
  0000058C            03375 F1_000508 equ $ ; IN [TRANSPONDER.BAS] high pllCLK
00058C 9693           03376         bcf TRISB,3,0
00058E 868A           03377         bsf LATB,3,0
  00000590            03378 F1_000509 equ $ ; IN [TRANSPONDER.BAS] DELAYUS 10
000590 0E03           03379         movlw 3
000592 2EE8           03380         decfsz WREG,F,0
000594 D7FE           03381         bra $ - 2
000596 0000           03382         nop
000598 0000           03383         nop
  0000059A            03384 F1_000510 equ $ ; IN [TRANSPONDER.BAS] low pllCLK
00059A 9693           03385         bcf TRISB,3,0
00059C 968A           03386         bcf LATB,3,0
  0000059E            03387 F1_000511 equ $ ; IN [TRANSPONDER.BAS] DELAYUS 10
00059E 0E03           03388         movlw 3
0005A0 2EE8           03389         decfsz WREG,F,0
0005A2 D7FE           03390         bra $ - 2
0005A4 0000           03391         nop
0005A6 0000           03392         nop
0005A8                03393 CT@LB70
  000005A8            03394 F1_000512 equ $ ; IN [TRANSPONDER.BAS] NEXT sayac
0005A8 2A2B           03395         incf sayac,F,0
0005AA A0D8           03396         btfss STATUS,0,0
                      03397         go@to FR@LB68
0005AE                03398 NX@LB69
  000005AE            03399 F1_000514 equ $ ; IN [TRANSPONDER.BAS] high pllLE
0005AE 9A93           03400         bcf TRISB,5,0
0005B0 8A8A           03401         bsf LATB,5,0
  000005B2            03402 F1_000515 equ $ ; IN [TRANSPONDER.BAS] DELAYUS 10
0005B2 0E03           03403         movlw 3
0005B4 2EE8           03404         decfsz WREG,F,0
0005B6 D7FE           03405         bra $ - 2
0005B8 0000           03406         nop
0005BA 0000           03407         nop
  000005BC            03408 F1_000516 equ $ ; IN [TRANSPONDER.BAS] low pllLE
0005BC 9A93           03409         bcf TRISB,5,0
0005BE 9A8A           03410         bcf LATB,5,0
  000005C0            03411 F1_000517 equ $ ; IN [TRANSPONDER.BAS] DELAYUS 10
0005C0 0E03           03412         movlw 3
0005C2 2EE8           03413         decfsz WREG,F,0
0005C4 D7FE           03414         bra $ - 2
0005C6 0000           03415         nop
0005C8 0000           03416         nop
  000005CA            03417 F1_000519 equ $ ; IN [TRANSPONDER.BAS] return
0005CA 0012           03418         return 0
  000005CC            03419 F1_EOF equ $ ; TRANSPONDER.BAS
0005CC                03420 PB@LB73
0005CC D7FF           03421         bra PB@LB73
0005CE                03423 __EOF
21 1E 1C 3F 80 03 C0 003424 config FOSC = XT
       3 E0 03 40 
                      03425 config PLLCFG = off
                      03426 config PRICLKEN = on
                      03427 config FCMEN = off
                      03428 config IESO = off
                      03429 config PWRTEN = on
                      03430 config BOREN = SBORDIS
                      03431 config BORV = 190
                      03432 config WDTEN = off
                      03433 config WDTPS = 128
                      03434 config CCP2MX = PORTC1
                      03435 config STVREN = off
                      03436 config LVP = off
                      03437 config MCLRE = INTMCLR
                      03438 config CP0 = off
                      03439 config CP1 = off
                      03440 config CPB = off
                      03441 config CPD = off
                      03442 config WRT0 = off
                      03443 config WRT1 = off
                      03444 config WRTB = off
                      03445 config WRTC = off
                      03446 config WRTD = off
                      03447 config EBTR0 = off
                      03448 config EBTR1 = off
                      03449 config EBTRB = off
                      03450         end
MPASM  5.45                               A.S   12-14-2013  13:28:34         PAGE  3


SYMBOL TABLE
  LABEL                             VALUE 

ABDEN                             00000000
ABDOVF                            00000007
ACKDT                             00000005
ACKEN                             00000004
ACKSTAT                           00000006
ACKTIM                            00000007
ACQT0                             00000003
ACQT1                             00000004
ACQT2                             00000005
ACS714_5V                         PORTA,2
AD8317AGCSET                      PORTC,2
AD8317FINAL                       PORTC,7
ADCMD                             00000000
ADCON0                            00000FC2
ADCON1                            00000FC1
ADCON2                            00000FC0
ADCS0                             00000000
ADCS1                             00000001
ADCS2                             00000002
ADDEN                             00000003
ADEN                              00000003
ADFM                              00000007
ADIE                              00000006
ADIF                              00000006
ADIN_REQ                          0000000A
ADIN_STIME                        00000032
ADIN_TAD                          00000003
ADIP                              00000006
ADON                              00000000
ADRES                             00000FC3
ADRESH                            00000FC4
ADRESL                            00000FC3
ADRESLH                           00000FC4
AGC8317IN                         PORTA,1
AHEN                              SSP1CON3,1
AN0                               00000000
AN1                               00000001
AN10                              00000001
AN11                              00000004
AN12                              00000000
AN13                              00000005
AN14                              00000002
AN15                              00000003
AN16                              00000004
AN17                              00000005
AN18                              00000006
AN19                              00000007
AN2                               00000002
AN3                               00000003
AN4                               00000005
AN8                               00000002
AN9                               00000003
ANSA0                             00000000
ANSA1                             00000001
ANSA2                             00000002
ANSA3                             00000003
ANSA5                             00000005
ANSB0                             00000000
ANSB1                             00000001
ANSB2                             00000002
ANSB3                             00000003
ANSB4                             00000004
ANSB5                             00000005
ANSC2                             00000002
ANSC3                             00000003
ANSC4                             00000004
ANSC5                             00000005
ANSC6                             00000006
ANSC7                             00000007
ANSELA                            00000F38
ANSELB                            00000F39
ANSELC                            00000F3A
BANKA_END                         95
BANKA_START                       0
BAUD1CON                          00000FB8
BAUD2CON                          00000F70
BAUDCON                           00000FB8
BAUDCON1                          00000FB8
BAUDCON2                          00000F70
BAUDCTL                           00000FB8
BC@LL11                           0000026C
BC@LL13                           000003A2
BC@LL15                           0000027C
BC@LL17                           0000028E
BC@LL18                           00000370
BC@LL20                           00000370
BC@LL22                           000002C6
BC@LL24                           000002DC
BC@LL26                           00000302
BC@LL28                           000002F4
BC@LL3                            0000026C
BC@LL30                           00000300
BC@LL32                           00000314
BC@LL34                           0000032A
BC@LL36                           00000340
BC@LL38                           00000356
BC@LL40                           00000368
BC@LL42                           00000370
BC@LL44                           00000388
BC@LL46                           000003A2
BC@LL48                           000003EA
BC@LL5                            0000026C
BC@LL50                           00000488
BC@LL52                           00000480
BC@LL53                           0000047C
BC@LL54                           00000414
BC@LL55                           00000426
BC@LL56                           00000438
BC@LL57                           0000044A
BC@LL58                           0000045C
BC@LL59                           0000046E
BC@LL60                           0000047C
BC@LL61                           00000488
BC@LL66                           000004A6
BC@LL67                           000004AE
BC@LL7                            0000026C
BC@LL72                           00000578
BC@LL9                            0000026C
BCL1IE                            00000003
BCL1IF                            00000003
BCL1IP                            00000003
BCL2IE                            00000006
BCL2IF                            00000006
BCL2IP                            00000006
BCLIE                             00000003
BCLIF                             00000003
BCLIP                             00000003
BF                                SSPSTAT,0
BGST                              00000005
BGVST                             00000006
BIT_BIT                           
BIT_BYTE                          
BIT_DWORD                         
BIT_FLOAT                         
BIT_WORD                          
BIT_WREG                          
BOEN                              00000004
BOR                               00000000
BOREN_NOSLP_2                     000000FD
BOREN_OFF_2                       000000F9
BOREN_ON_2                        000000FB
BOREN_SBORDIS_2                   000000FF
BORV_190_2                        000000FF
BORV_220_2                        000000F7
BORV_250_2                        000000EF
BORV_285_2                        000000E7
BRG16                             00000003
BRGH                              00000002
BSR                               00000FE0
BYTE_BIT                          
BYTE_BYTE                         
BYTE_DWORD                        
BYTE_FLOAT                        
BYTE_SDWORD                       
BYTE_SWORD                        
BYTE_WORD                         
BYTE_WREG                         
C                                 00000000
C12IN0M                           00000000
C12IN0N                           00000000
C12IN1M                           00000001
C12IN1N                           00000001
C12IN2M                           00000003
C12IN2N                           00000003
C12IN3M                           00000001
C12IN3N                           00000001
C1CH0                             00000000
C1CH1                             00000001
C1HYS                             00000003
C1IE                              00000006
C1IF                              00000006
C1INP                             00000003
C1IP                              00000006
C1OE                              00000005
C1ON                              00000007
C1OUT_CM1CON                      00000006
C1OUT_CM1CON0                     00000006
C1OUT_PORTA                       00000004
C1POL                             00000004
C1R                               00000002
C1RSEL                            00000005
C1SP                              00000003
C1SYNC                            00000001
C1TSEL0                           00000000
C1TSEL1                           00000001
C2CH0                             00000000
C2CH1                             00000001
C2HYS                             00000002
C2IE                              00000005
C2IF                              00000005
C2INP                             00000002
C2IP                              00000005
C2OE                              00000005
C2ON                              00000007
C2OUT_CM2CON                      00000006
C2OUT_CM2CON0                     00000006
C2OUT_PORTA                       00000005
C2POL                             00000004
C2R                               00000002
C2RSEL                            00000004
C2SP                              00000003
C2SYNC                            00000000
C2TSEL0                           00000003
C2TSEL1                           00000004
C3TSEL0                           00000006
C3TSEL1                           00000007
C4TSEL0                           00000000
C4TSEL1                           00000001
C5TSEL0                           00000002
C5TSEL1                           00000003
CCP1                              00000002
CCP1AS0                           00000004
CCP1AS1                           00000005
CCP1AS2                           00000006
CCP1ASE                           00000007
CCP1CON                           00000FBD
CCP1IE                            00000002
CCP1IF                            00000002
CCP1IP                            00000002
CCP1M0                            00000000
CCP1M1                            00000001
CCP1M2                            00000002
CCP1M3                            00000003
CCP1MD                            00000000
CCP2AS                            00000F64
CCP2AS0                           00000004
CCP2AS1                           00000005
CCP2AS2                           00000006
CCP2ASE                           00000007
CCP2CON                           00000F66
CCP2IE                            00000000
CCP2IF                            00000000
CCP2IP                            00000000
CCP2M0                            00000000
CCP2M1                            00000001
CCP2M2                            00000002
CCP2M3                            00000003
CCP2MD                            00000001
CCP2MX_PORTB3_3                   000000FE
CCP2MX_PORTC1_3                   000000FF
CCP2_PORTB                        00000003
CCP2_PORTC                        00000001
CCP3AS                            00000F5B
CCP3AS0                           00000004
CCP3AS1                           00000005
CCP3AS2                           00000006
CCP3ASE                           00000007
CCP3CON                           00000F5D
CCP3IE                            00000000
CCP3IF                            00000000
CCP3IP                            00000000
CCP3M0                            00000000
CCP3M1                            00000001
CCP3M2                            00000002
CCP3M3                            00000003
CCP3MD                            00000002
CCP3MX_PORTB5_3                   000000FF
CCP3MX_PORTC6_3                   000000FB
CCP3_PORTB                        00000005
CCP3_PORTC                        00000006
CCP4                              00000000
CCP4CON                           00000F57
CCP4IE                            00000001
CCP4IF                            00000001
CCP4IP                            00000001
CCP4M0                            00000000
CCP4M1                            00000001
CCP4M2                            00000002
CCP4M3                            00000003
CCP4MD                            00000003
CCP5                              00000004
CCP5CON                           00000F54
CCP5IE                            00000002
CCP5IF                            00000002
CCP5IP                            00000002
CCP5M0                            00000000
CCP5M1                            00000001
CCP5M2                            00000002
CCP5M3                            00000003
CCP5MD                            00000004
CCPR1                             00000FBE
CCPR1H                            00000FBF
CCPR1L                            00000FBE
CCPR1LH                           00000FBF
CCPR2                             00000F67
CCPR2H                            00000F68
CCPR2L                            00000F67
CCPR2LH                           00000F68
CCPR3                             00000F5E
CCPR3H                            00000F5F
CCPR3L                            00000F5E
CCPR3LH                           00000F5F
CCPR4                             00000F58
CCPR4H                            00000F59
CCPR4L                            00000F58
CCPR4LH                           00000F59
CCPR5                             00000F55
CCPR5H                            00000F56
CCPR5L                            00000F55
CCPR5LH                           00000F56
CCPTMRS0                          00000F49
CCPTMRS1                          00000F48
CFGS                              00000006
CIKIS_GUCU                        00000030
CIKIS_GUCUH                       00000031
CK                                00000006
CK1                               00000006
CK2                               00000006
CKE                               00000006
CKP                               SSPCON1,4
CKTXP                             00000004
CLRC                              bcf STATUS,0
CLRW                              clrf WREG
CLRZ                              bcf STATUS,2
CM12CON                           00000F77
CM1CON                            00000F79
CM1CON0                           00000F79
CM2CON                            00000F78
CM2CON0                           00000F78
CM2CON1                           00000F77
CMP1MD                            00000001
CMP2MD                            00000002
CONFIG1H                          00300001
CONFIG2H                          00300003
CONFIG2L                          00300002
CONFIG3H                          00300005
CONFIG4L                          00300006
CONFIG5H                          00300009
CONFIG5L                          00300008
CONFIG6H                          0030000B
CONFIG6L                          0030000A
CONFIG7H                          0030000D
CONFIG7L                          0030000C
CONFIG_REQ                        1
CP0_OFF_5                         000000FF
CP0_ON_5                          000000FE
CP1_OFF_5                         000000FF
CP1_ON_5                          000000FD
CP2_OFF_5                         000000FF
CP2_ON_5                          000000FB
CP3_OFF_5                         000000FF
CP3_ON_5                          000000F7
CP@LB3                            0000024E
CPB_OFF_5                         000000FF
CPB_ON_5                          000000BF
CPD_OFF_5                         000000FF
CPD_ON_5                          0000007F
CREN                              00000004
CSRC                              00000007
CT@LB64                           000004F6
CT@LB70                           000005A8
CTED1                             00000002
CTED2                             00000003
CTMUCON0                          00000F45
CTMUCON1                          00000F44
CTMUCONH                          00000F45
CTMUCONL                          00000F44
CTMUCONLH                         00000F45
CTMUEN                            00000007
CTMUICON                          00000F43
CTMUICONH                         00000F43
CTMUIE                            00000003
CTMUIF                            00000003
CTMUIP                            00000003
CTMUMD                            00000003
CTMUSIDL                          00000005
CTPLS                             00000002
CTTRIG                            00000000
CVREF                             00000002
D@K                               00000128
DACCON0                           00000F41
DACCON1                           00000F40
DACEN                             00000007
DACLPS                            00000006
DACNSS                            00000000
DACOE                             00000005
DACOUT                            00000002
DACPSS0                           00000002
DACPSS1                           00000003
DACR0                             00000000
DACR1                             00000001
DACR2                             00000002
DACR3                             00000003
DACR4                             00000004
DATAIN                            0000003B
DATAOUT                           00000027
DATAOUTH                          00000028
DATAOUTHH                         00000029
DATAOUTHHH                        0000002A
DC                                00000001
DC1B0                             00000004
DC1B1                             00000005
DC2B0                             00000004
DC2B1                             00000005
DC3B0                             00000004
DC3B1                             00000005
DC4B0                             00000004
DC4B1                             00000005
DC5B0                             00000004
DC5B1                             00000005
DDRA                              00000F92
DDRB                              00000F93
DDRC                              00000F94
DEBUG_OFF_4                       000000FF
DEBUG_ON_4                        0000007F
DEVID1                            003FFFFE
DEVID2                            003FFFFF
DHEN                              00000000
DLY@P                             000000C8
DONE                              00000001
DT1                               00000007
DT2                               00000007
DTRXP                             00000005
DURUM                             0000004B
DUTYCYCLE                         0000004D
DV@LP                             0000010E
DWORD_BIT                         
DWORD_BYTE                        
DWORD_DWORD                       
DWORD_FLOAT                       
DWORD_WORD                        
DWORD_WREG                        
DY                                0000003A
D_A                               SSPSTAT,5
D_NOT_A                           00000005
EBTR0_OFF_7                       000000FF
EBTR0_ON_7                        000000FE
EBTR1_OFF_7                       000000FF
EBTR1_ON_7                        000000FD
EBTR2_OFF_7                       000000FF
EBTR2_ON_7                        000000FB
EBTR3_OFF_7                       000000FF
EBTR3_ON_7                        000000F7
EBTRB_OFF_7                       000000FF
EBTRB_ON_7                        000000BF
ECCP1AS                           00000FB6
ECCP2AS                           00000F64
ECCP3AS                           00000F5B
ECCPAS                            00000FB6
ECCPAS0                           00000004
ECCPAS1                           00000005
ECCPAS2                           00000006
ECCPASE                           00000007
EDG1POL                           00000004
EDG1SEL0                          00000002
EDG1SEL1                          00000003
EDG1STAT                          00000000
EDG2POL                           00000007
EDG2SEL0                          00000005
EDG2SEL1                          00000006
EDG2STAT                          00000001
EDGEN                             00000003
EDGSEQEN                          00000002
EEADR                             00000FA9
EEADR0                            00000000
EEADR1                            00000001
EEADR2                            00000002
EEADR3                            00000003
EEADR4                            00000004
EEADR5                            00000005
EEADR6                            00000006
EEADR7                            00000007
EEADRH                            00000FAA
EECON1                            00000FA6
EECON2                            00000FA7
EEDATA                            00000FA8
EEDATL                            00000FA8
EEIE                              00000004
EEIF                              00000004
EEIP                              00000004
EEPGD                             00000007
F1_000051                         00000156
F1_000057                         0000015A
F1_000060                         0000015E
F1_000071                         00000172
F1_000072                         00000174
F1_000073                         00000176
F1_000074                         00000178
F1_000075                         0000017A
F1_000076                         0000017C
F1_000078                         0000017E
F1_000079                         00000180
F1_000080                         00000182
F1_000081                         00000184
F1_000082                         00000186
F1_000083                         00000188
F1_000084                         0000018A
F1_000085                         0000018C
F1_000087                         0000018E
F1_000088                         00000190
F1_000089                         00000192
F1_000090                         00000194
F1_000091                         00000196
F1_000092                         00000198
F1_000093                         0000019A
F1_000094                         0000019C
F1_000133                         0000019E
F1_000137                         000001A0
F1_000182                         000001A4
F1_000191                         000001A6
F1_000195                         000001AE
F1_000199                         000001B2
F1_000200                         000001B6
F1_000201                         000001B8
F1_000205                         000001BC
F1_000207                         000001BE
F1_000209                         000001C0
F1_000210                         000001C2
F1_000211                         000001C4
F1_000213                         000001C6
F1_000214                         000001C8
F1_000215                         000001CA
F1_000218                         000001CC
F1_000219                         000001CE
F1_000221                         000001D0
F1_000227                         000001D2
F1_000231                         000001D4
F1_000234                         000001D6
F1_000237                         000001D8
F1_000239                         000001E8
F1_000244                         000001EE
F1_000246                         00000200
F1_000248                         00000202
F1_000249                         00000218
F1_000250                         0000021A
F1_000251                         00000222
F1_000252                         00000224
F1_000253                         00000226
F1_000254                         0000022A
F1_000256                         00000238
F1_000257                         0000023C
F1_000258                         00000240
F1_000259                         0000024E
F1_000260                         00000252
F1_000261                         00000254
F1_000262                         0000025C
F1_000263                         0000025E
F1_000264                         00000260
F1_000265                         00000268
F1_000266                         0000026A
F1_000267                         0000026C
F1_000268                         0000026C
F1_000269                         0000026C
F1_000270                         0000026C
F1_000271                         0000026C
F1_000274                         0000026C
F1_000275                         00000272
F1_000277                         00000274
F1_000279                         0000027C
F1_000281                         00000282
F1_000282                         00000284
F1_000283                         00000288
F1_000284                         0000028E
F1_000285                         0000028E
F1_000286                         00000290
F1_000289                         00000296
F1_000290                         0000029A
F1_000291                         000002A4
F1_000292                         000002A8
F1_000293                         000002AA
F1_000294                         000002AC
F1_000296                         000002AE
F1_000297                         000002B0
F1_000299                         000002BC
F1_000301                         000002C0
F1_000302                         000002C4
F1_000303                         000002C6
F1_000304                         000002C6
F1_000306                         000002D2
F1_000308                         000002D6
F1_000309                         000002DA
F1_000310                         000002DC
F1_000311                         000002DC
F1_000313                         000002E8
F1_000314                         000002EA
F1_000315                         000002F4
F1_000316                         00000300
F1_000317                         00000302
F1_000318                         00000302
F1_000320                         0000030E
F1_000321                         00000312
F1_000322                         00000314
F1_000323                         00000314
F1_000325                         00000320
F1_000326                         00000324
F1_000327                         00000328
F1_000328                         0000032A
F1_000329                         0000032A
F1_000331                         00000336
F1_000332                         0000033A
F1_000333                         0000033E
F1_000334                         00000340
F1_000335                         00000340
F1_000337                         0000034C
F1_000338                         00000350
F1_000339                         00000354
F1_000340                         00000356
F1_000341                         00000356
F1_000343                         00000362
F1_000344                         00000366
F1_000345                         00000368
F1_000346                         00000368
F1_000348                         00000370
F1_000349                         00000370
F1_000351                         00000370
F1_000352                         00000388
F1_000353                         0000038A
F1_000354                         000003A2
F1_000357                         000003A2
F1_000359                         000003A4
F1_000363                         000003B6
F1_000364                         000003BA
F1_000365                         000003BC
F1_000366                         000003BE
F1_000369                         000003C0
F1_000370                         000003C4
F1_000371                         000003C8
F1_000372                         000003CC
F1_000373                         000003D0
F1_000374                         000003D4
F1_000379                         000003D8
F1_000380                         000003DE
F1_000381                         000003E2
F1_000382                         000003E6
F1_000383                         000003EA
F1_000385                         000003EA
F1_000388                         000003EE
F1_000389                         000003F6
F1_000390                         000003FE
F1_000391                         00000402
F1_000392                         0000040C
F1_000393                         00000414
F1_000394                         0000041E
F1_000395                         00000426
F1_000396                         00000430
F1_000397                         00000438
F1_000398                         00000442
F1_000399                         0000044A
F1_000400                         00000454
F1_000401                         0000045C
F1_000402                         00000466
F1_000403                         0000046E
F1_000404                         00000478
F1_000405                         0000047C
F1_000406                         00000480
F1_000407                         00000480
F1_000409                         00000484
F1_000410                         00000488
F1_000411                         00000488
F1_000417                         00000488
F1_000419                         00000494
F1_000420                         0000049A
F1_000421                         0000049E
F1_000422                         000004A6
F1_000423                         000004A6
F1_000424                         000004AA
F1_000426                         000004AE
F1_000428                         000004AE
F1_000429                         000004BA
F1_000433                         000004C6
F1_000434                         000004D2
F1_000448                         000004DE
F1_000449                         000004E4
F1_000450                         000004E8
F1_000451                         000004EE
F1_000452                         000004F2
F1_000453                         000004F6
F1_000456                         000004FC
F1_000465                         00000500
F1_000476                         00000502
F1_000477                         0000050E
F1_000480                         00000512
F1_000481                         00000520
F1_000486                         00000524
F1_000487                         00000532
F1_000490                         00000536
F1_000491                         00000544
F1_000493                         00000548
F1_000503                         0000054A
F1_000504                         00000556
F1_000505                         0000055A
F1_000506                         00000578
F1_000507                         00000582
F1_000508                         0000058C
F1_000509                         00000590
F1_000510                         0000059A
F1_000511                         0000059E
F1_000512                         000005A8
F1_000514                         000005AE
F1_000515                         000005B2
F1_000516                         000005BC
F1_000517                         000005C0
F1_000519                         000005CA
F1_EOF                            000005CC
F1_SOF                            00000156
F2_EOF                            00000156
F2_SOF                            00000156
F@CALL                            
F@JUMP                            
FCMEN_OFF_1                       000000BF
FCMEN_ON_1                        000000FF
FERR                              00000002
FLOAT_BIT                         
FLOAT_BYTE                        
FLOAT_DWORD                       
FLOAT_FLOAT                       
FLOAT_WORD                        
FLOAT_WREG                        
FLT0                              00000000
FOSC_ECHPIO6_1                    000000F5
FOSC_ECHP_1                       000000F4
FOSC_ECLPIO6_1                    000000FD
FOSC_ECLP_1                       000000FC
FOSC_ECMPIO6_1                    000000FB
FOSC_ECMP_1                       000000FA
FOSC_HSHP_1                       000000F2
FOSC_HSMP_1                       000000F3
FOSC_INTIO67_1                    000000F8
FOSC_INTIO7_1                     000000F9
FOSC_LP_1                         000000F0
FOSC_RCIO6_1                      000000F7
FOSC_RC_1                         000000F6
FOSC_XT_1                         000000F1
FR@LB62                           0000048C
FR@LB68                           0000054E
FREE                              00000004
FREK1                             00000015
FREK1H                            00000016
FREK2                             00000017
FREK2H                            00000018
FSR0H                             00000FEA
FSR0L                             00000FE9
FSR0LH                            00000FEA
FSR1H                             00000FE2
FSR1L                             00000FE1
FSR1LH                            00000FE2
FSR2H                             00000FDA
FSR2L                             00000FD9
FSR2LH                            00000FDA
FVRCON                            00000F42
FVREN                             00000007
FVRS0                             00000004
FVRS1                             00000005
FVRST                             00000006
G@OTO                             
GCEN                              00000007
GEN                               00000000
GIE                               INTCON,7
GIEH                              00000007
GIEL                              00000006
GIE_GIEH                          00000007
GO@TO                             
GO_DONE                           00000001
GO_NOT_DONE                       00000001
HFIOFS                            00000002
HFOFST_OFF_3                      000000F7
HFOFST_ON_3                       000000FF
HLVDCON                           00000F9C
HLVDEN                            00000004
HLVDIE                            00000002
HLVDIF                            00000002
HLVDIN                            00000005
HLVDIP                            00000002
HLVDL0                            00000000
HLVDL1                            00000001
HLVDL2                            00000002
HLVDL3                            00000003
HPW@2L                            0000008E
HPW@2S                            0000008C
HPW@SK1                           0000007A
HPWM@FIN                          00000076
HR                                00000039
I2C_DATA                          0000003E
I2C_DATA#0                        0000003E
I2C_DATA#1                        0000003F
I2C_DATA#2                        00000040
I2C_DATA#3                        00000041
I2C_DATA#4                        00000042
I2C_DATA#5                        00000043
I2C_DATA#6                        00000044
I2C_DATA#7                        00000045
I2C_DATA#8                        00000046
I2C_DATA#9                        00000047
I2C_DATACOUNT                     00000048
IDISSEN                           00000001
IDLEN                             00000007
IDLOC0                            00200000
IDLOC1                            00200001
IDLOC2                            00200002
IDLOC3                            00200003
IDLOC4                            00200004
IDLOC5                            00200005
IDLOC6                            00200006
IDLOC7                            00200007
IESO_OFF_1                        0000007F
IESO_ON_1                         000000FF
INDF0                             00000FEF
INDF1                             00000FE7
INDF2                             00000FDF
INT0                              00000000
INT0E                             00000004
INT0F                             00000001
INT0IE                            00000004
INT0IF                            00000001
INT1                              00000001
INT1E                             00000003
INT1F                             00000000
INT1IE                            00000003
INT1IF                            00000000
INT1IP                            00000006
INT1P                             00000006
INT2                              00000002
INT2E                             00000004
INT2F                             00000001
INT2IE                            00000004
INT2IF                            00000001
INT2IP                            00000007
INT2P                             00000007
INTCON                            00000FF2
INTCON2                           00000FF1
INTCON3                           00000FF0
INTEDG0                           00000006
INTEDG1                           00000005
INTEDG2                           00000004
INTERRUPTSECTION                  000001EE
INTSRC                            00000007
IOCB                              00000F62
IOCB4                             00000004
IOCB5                             00000005
IOCB6                             00000006
IOCB7                             00000007
IOFS                              00000002
IPEN                              00000007
IPR1                              00000F9F
IPR2                              00000FA2
IPR3                              00000FA5
IPR4                              00000F7C
IPR5                              00000F7F
IRCF0                             00000004
IRCF1                             00000005
IRCF2                             00000006
IRNG0                             00000000
IRNG1                             00000001
IRVST                             00000005
ITRIM0                            00000002
ITRIM1                            00000003
ITRIM2                            00000004
ITRIM3                            00000005
ITRIM4                            00000006
ITRIM5                            00000007
IVRST                             00000005
JUMP                              
KBI0                              00000004
KBI1                              00000005
KBI2                              00000006
KBI3                              00000007
LAB                               1
LABEL_POINTER                     
LABEL_WORD                        
LASTDATA                          0000003C
LATA                              00000F89
LATA0                             00000000
LATA1                             00000001
LATA2                             00000002
LATA3                             00000003
LATA4                             00000004
LATA5                             00000005
LATA6                             00000006
LATA7                             00000007
LATB                              00000F8A
LATB0                             00000000
LATB1                             00000001
LATB2                             00000002
LATB3                             00000003
LATB4                             00000004
LATB5                             00000005
LATB6                             00000006
LATB7                             00000007
LATC                              00000F8B
LATC0                             00000000
LATC1                             00000001
LATC2                             00000002
LATC3                             00000003
LATC4                             00000004
LATC5                             00000005
LATC6                             00000006
LATC7                             00000007
LCD#TYPE                          0
LD29300ENABLE                     PORTC,0
LFIOFS                            00000000
LVDCON                            00000F9C
LVDEN                             00000004
LVDIE                             00000002
LVDIF                             00000002
LVDIN                             00000005
LVDIP                             00000002
LVDL0                             00000000
LVDL1                             00000001
LVDL2                             00000002
LVDL3                             00000003
LVP_OFF_4                         000000FB
LVP_ON_4                          000000FF
LVV0                              00000000
LVV1                              00000001
LVV2                              00000002
LVV3                              00000003
MAIN                              000003EE
MC1OUT                            00000007
MC2OUT                            00000006
MCLR                              00000003
MCLRE_EXTMCLR_3                   000000FF
MCLRE_INTMCLR_3                   0000007F
MFIOFS                            00000001
MFIOSEL                           00000004
MN                                00000038
MOVFW                             
MS                                00000034
MSH                               00000035
MSK0                              00000000
MSK1                              00000001
MSK2                              00000002
MSK3                              00000003
MSK4                              00000004
MSK5                              00000005
MSK6                              00000006
MSK7                              00000007
MSSP1MD                           00000006
MSSP2MD                           00000007
MYSCL1                            PORTC,3
MYSCL2                            PORTB,1
MYSDA1                            PORTC,4
MYSDA2                            PORTB,2
N                                 00000004
NEGW                              negf WREG
NOT_A                             00000005
NOT_ADDRESS                       00000005
NOT_BOR                           00000000
NOT_DONE                          00000001
NOT_MCLR                          00000003
NOT_PD                            00000002
NOT_POR                           00000001
NOT_RBPU                          00000007
NOT_RI                            00000004
NOT_SS                            00000005
NOT_SS1                           00000005
NOT_SS2                           00000000
NOT_T1SYNC                        00000002
NOT_T3SYNC                        00000002
NOT_T5SYNC                        00000002
NOT_TO                            00000003
NOT_W                             00000002
NOT_WRITE                         00000002
NUM16_SFR                         
NUM_BIT                           
NUM_BYTE                          
NUM_DWORD                         
NUM_FLOAT                         
NUM_FSR0                          
NUM_FSR1                          
NUM_FSR2                          
NUM_SFR                           
NUM_WORD                          
NUM_WREG                          
NVCFG0                            00000000
NVCFG1                            00000001
NX@LB63                           000004FC
NX@LB69                           000005AE
OERR                              00000001
OSCCON                            00000FD3
OSCCON2                           00000FD2
OSCFIE                            00000007
OSCFIF                            00000007
OSCFIP                            00000007
OSCTUNE                           00000F9B
OSTS                              00000003
OV                                00000003
P1A                               00000002
P1B                               00000002
P1C                               00000001
P1D                               00000004
P1DC0                             00000000
P1DC1                             00000001
P1DC2                             00000002
P1DC3                             00000003
P1DC4                             00000004
P1DC5                             00000005
P1DC6                             00000006
P1M0                              00000006
P1M1                              00000007
P1RSEN                            00000007
P2A_PORTB                         00000003
P2A_PORTC                         00000001
P2BMX_PORTB5_3                    000000FF
P2BMX_PORTC0_3                    000000DF
P2B_PORTB                         00000005
P2B_PORTC                         00000000
P2DC0                             00000000
P2DC1                             00000001
P2DC2                             00000002
P2DC3                             00000003
P2DC4                             00000004
P2DC5                             00000005
P2DC6                             00000006
P2M0                              00000006
P2M1                              00000007
P2RSEN                            00000007
P3A_PORTB                         00000005
P3A_PORTC                         00000006
P3B                               00000007
P3DC0                             00000000
P3DC1                             00000001
P3DC2                             00000002
P3DC3                             00000003
P3DC4                             00000004
P3DC5                             00000005
P3DC6                             00000006
P3M0                              00000006
P3M1                              00000007
P3RSEN                            00000007
PB@LB73                           000005CC
PBADEN_OFF_3                      000000FD
PBADEN_ON_3                       000000FF
PBP#VAR0                          00000001
PBP#VAR0H                         00000002
PBP#VAR0HH                        00000003
PBP#VAR0HHH                       00000004
PC                                00000FF9
PCIE                              00000006
PCL                               00000FF9
PCLATH                            00000FFA
PCLATU                            00000FFB
PD                                00000002
PDC0                              00000000
PDC1                              00000001
PDC2                              00000002
PDC3                              00000003
PDC4                              00000004
PDC5                              00000005
PDC6                              00000006
PEIE                              INTCON,6
PEIE_GIEL                         00000006
PEN                               00000002
PGC                               00000006
PGD                               00000007
PIE1                              00000F9D
PIE2                              00000FA0
PIE3                              00000FA3
PIE4                              00000F7A
PIE5                              00000F7D
PIR1                              00000F9E
PIR2                              00000FA1
PIR3                              00000FA4
PIR4                              00000F7B
PIR5                              00000F7E
PLLCFG_OFF_1                      000000EF
PLLCFG_ON_1                       000000FF
PLLCLK                            PORTB,3
PLLDATA                           PORTB,4
PLLEN                             00000006
PLLGONDER                         0000054A
PLLLD                             PORTA,3
PLLLE                             PORTB,5
PLLPSIF                           PORTB,7
PLLPSRF                           PORTB,6
PLLRDY                            00000007
PLLYAZ_LATCH                      _B#VR1,0
PLL_PROGRAMLA                     00000502
PLUSW0                            00000FEB
PLUSW1                            00000FE3
PLUSW2                            00000FDB
PMD0                              00000F3F
PMD1                              00000F3E
PMD2                              00000F3D
POR                               00000001
PORTA                             00000F80
PORTB                             00000F81
PORTC                             00000F82
PORTE                             00000F84
POSTDEC0                          00000FED
POSTDEC1                          00000FE5
POSTDEC2                          00000FDD
POSTINC0                          00000FEE
POSTINC1                          00000FE6
POSTINC2                          00000FDE
PP0                               00000005
PP0H                              00000006
PP1                               00000007
PP1H                              00000008
PP2                               00000009
PP2H                              0000000A
PP3                               0000000B
PP3H                              0000000C
PP4                               0000000D
PP4H                              0000000E
PP5                               0000000F
PP7                               00000010
PP7H                              00000011
PP_ACKDT                          00000005
PP_ACKEN                          00000004
PP_ADON                           00000000
PP_CREN                           00000004
PP_EEPGD                          00000007
PP_GO_DONE                        00000001
PP_GO_NOT_DONE                    00000001
PP_OERR                           00000001
PP_PEN                            00000002
PP_RCEN                           00000003
PP_RCIF                           00000005
PP_RD                             00000000
PP_RD16                           00000001
PP_RSEN                           00000001
PP_R_NOT_W                        00000002
PP_R_W                            00000002
PP_SEN                            00000000
PP_SENDB                          00000003
PP_T2CKPS0                        00000000
PP_T2CKPS1                        00000001
PP_TMR2ON                         00000002
PP_TMR4ON                         00000002
PP_TXIF                           00000004
PP_WR                             00000001
PP_WREN                           00000002
PP_WRERR                          00000003
PR2                               00000FBB
PR4                               00000F52
PR6                               00000F4B
PRE                               00000025
PRE2                              00000026
PREINC0                           00000FEC
PREINC1                           00000FE4
PREINC2                           00000FDC
PREMAIN                           000003B6
PRICLKEN_OFF_1                    000000DF
PRICLKEN_ON_1                     000000FF
PRISD                             00000002
PRODH                             00000FF4
PRODL                             00000FF3
PRODLH                            00000FF4
PROTON#CODE#START                 00000000
PROTON#MAIN#START                 00000154
PRSEN                             00000007
PSA                               00000003
PSS1AC0                           00000002
PSS1AC1                           00000003
PSS1BD0                           00000000
PSS1BD1                           00000001
PSS2AC0                           00000002
PSS2AC1                           00000003
PSS2BD0                           00000000
PSS2BD1                           00000001
PSS3AC0                           00000002
PSS3AC1                           00000003
PSS3BD0                           00000000
PSS3BD1                           00000001
PSSAC0                            00000002
PSSAC1                            00000003
PSSBD0                            00000000
PSSBD1                            00000001
PSTR1CON                          00000FB9
PSTR2CON                          00000F63
PSTR3CON                          00000F5A
PSTRCON                           00000FB9
PVCFG0                            00000002
PVCFG1                            00000003
PWM1CON                           00000FB7
PWM2CON                           00000F65
PWM3CON                           00000F5C
PWMCON                            00000FB7
PWM_VAL                           0000002F
PWRLED                            PORTA,5
PWRTEN_OFF_2                      000000FF
PWRTEN_ON_2                       000000FE
R@B                               
RA0                               00000000
RA1                               00000001
RA2                               00000002
RA3                               00000003
RA4                               00000004
RA5                               00000005
RA6                               00000006
RA7                               00000007
RAM_BANK                          00000000
RAM_BANKS                         0
RB0                               00000000
RB1                               00000001
RB2                               00000002
RB3                               00000003
RB4                               00000004
RB5                               00000005
RB6                               00000006
RB7                               00000007
RBIE                              00000003
RBIF                              00000000
RBIP                              00000000
RBPU                              00000007
RC0                               00000000
RC1                               00000001
RC1IE                             00000005
RC1IF                             00000005
RC1IP                             00000005
RC1REG                            00000FAE
RC1STA                            00000FAB
RC2                               00000002
RC2IE                             00000005
RC2IF                             00000005
RC2IP                             00000005
RC2REG                            00000F74
RC2STA                            00000F71
RC3                               00000003
RC4                               00000004
RC5                               00000005
RC6                               00000006
RC7                               00000007
RCEN                              00000003
RCIDL                             00000006
RCIE                              00000005
RCIF                              00000005
RCIP                              00000005
RCON                              00000FD0
RCREG                             00000FAE
RCREG1                            00000FAE
RCREG2                            00000F74
RCSTA                             00000FAB
RCSTA1                            00000FAB
RCSTA2                            00000F71
RD                                00000000
RD16                              00000001
RE3                               00000003
REF                               0000001B
REFH                              0000001C
RESPONSE                          0000004A
RI                                00000004
RLF                               
RRF                               
RSEN                              00000001
RX                                00000007
RX1                               00000007
RX2                               00000007
RX9                               00000006
RX9D                              00000000
R_NOT_W                           00000002
R_W                               SSPSTAT,2
S@B                               
SA                                3
SANIYEBEKLE                       0000002C
SAY                               0000004E
SAYAC                             0000002B
SBCDE                             00000002
SBOREN                            00000006
SCIE                              00000005
SCK                               00000003
SCK1                              00000003
SCK2                              00000001
SCKP                              00000004
SCL                               00000003
SCL1                              00000003
SCL2                              00000001
SCS0                              00000000
SCS1                              00000001
SDA                               00000004
SDA1                              00000004
SDA2                              00000002
SDAHT                             00000003
SDI                               00000004
SDI1                              00000004
SDI2                              00000002
SDO                               00000005
SDO1                              00000005
SDO2                              00000003
SEN                               SSP1CON2,0
SENDB                             00000003
SETC                              bsf STATUS,0
SETZ                              bsf STATUS,2
SKPC                              btfss STATUS,0
SKPNC                             btfsc STATUS,0
SKPNZ                             btfsc STATUS,2
SKPZ                              btfss STATUS,2
SLAVE_ADDRESS                     0000003D
SLRA                              00000000
SLRB                              00000001
SLRC                              00000002
SLRCON                            00000F60
SMP                               SSPSTAT,7
SOSCGO                            00000003
SOSCRUN                           00000006
SP#P9                             00000012
SP0                               00000000
SP1                               00000001
SP1BRG                            00000FAF
SP1BRGH                           00000FB0
SP2                               00000002
SP2BRG                            00000F75
SP2BRGH                           00000F76
SP3                               00000003
SP4                               00000004
SPBRG                             00000FAF
SPBRG1                            00000FAF
SPBRG1H                           00000FB0
SPBRG2                            00000F75
SPBRG2H                           00000F76
SPBRGH                            00000FB0
SPBRGH1                           00000FB0
SPBRGH2                           00000F76
SPEN                              00000007
SRCLK0                            00000004
SRCLK1                            00000005
SRCLK2                            00000006
SRCON0                            00000F47
SRCON1                            00000F46
SREN                              00000005
SRI                               00000000
SRLEN                             00000007
SRNQ                              00000005
SRNQEN                            00000002
SRPR                              00000000
SRPS                              00000001
SRQ                               00000004
SRQEN                             00000003
SRRC1E                            00000000
SRRC2E                            00000001
SRRCKE                            00000002
SRRPE                             00000003
SRSC1E                            00000004
SRSC2E                            00000005
SRSCKE                            00000006
SRSPE                             00000007
SS                                00000005
SS1                               00000005
SS2                               00000000
SSP1ADD                           00000FC8
SSP1BUF                           00000FC9
SSP1CON1                          00000FC6
SSP1CON2                          00000FC5
SSP1CON3                          00000FCB
SSP1IE                            00000003
SSP1IF                            00000003
SSP1IP                            00000003
SSP1MSK                           00000FCA
SSP1STAT                          00000FC7
SSP2ADD                           00000F6E
SSP2BUF                           00000F6F
SSP2CON1                          00000F6C
SSP2CON2                          00000F6B
SSP2CON3                          00000F69
SSP2IE                            00000007
SSP2IF                            00000007
SSP2IP                            00000007
SSP2MSK                           00000F6A
SSP2STAT                          00000F6D
SSPADD                            00000FC8
SSPBUF                            00000FC9
SSPCON1                           00000FC6
SSPCON2                           00000FC5
SSPCON3                           00000FCB
SSPEN                             SSPCON1,5
SSPIE                             PIE1,3
SSPIF                             PIR1,3
SSPIP                             IPR1,3
SSPM0                             00000000
SSPM1                             00000001
SSPM2                             00000002
SSPM3                             00000003
SSPMSK                            00000FCA
SSPOV                             SSPCON1,6
SSPSTAT                           00000FC7
STATE_INFO                        00000049
STATUS                            00000FD8
STKFUL                            00000007
STKOVF                            00000007
STKPTR                            00000FFC
STKUNF                            00000006
STP                               00000019
STPH                              0000001A
STR1A                             00000000
STR1B                             00000001
STR1C                             00000002
STR1D                             00000003
STR1SYNC                          00000004
STR2A                             00000000
STR2B                             00000001
STR2C                             00000002
STR2D                             00000003
STR2SYNC                          00000004
STR3A                             00000000
STR3B                             00000001
STR3C                             00000002
STR3D                             00000003
STR3SYNC                          00000004
STVREN_OFF_4                      000000FE
STVREN_ON_4                       000000FF
SWDTE                             00000000
SWDTEN                            00000000
SYNC                              00000004
T08BIT                            00000006
T0CKI                             00000004
T0CON                             00000FD5
T0CS                              00000005
T0IE                              00000005
T0IF                              00000002
T0PS0                             00000000
T0PS1                             00000001
T0PS2                             00000002
T0SE                              00000004
T1CKI                             00000000
T1CKPS0                           00000004
T1CKPS1                           00000005
T1CON                             00000FCD
T1G                               00000005
T1GCON                            00000FCC
T1GGO                             00000003
T1GGO_NOT_DONE                    00000003
T1GPOL                            00000006
T1GSPM                            00000004
T1GSS0                            00000000
T1GSS1                            00000001
T1GTM                             00000005
T1GVAL                            00000002
T1G_DONE                          00000003
T1OSCEN                           00000003
T1OSI                             00000001
T1OSO                             00000000
T1RD16                            00000001
T1SOSCEN                          00000003
T1SYNC                            00000002
T2CKPS0                           00000000
T2CKPS1                           00000001
T2CON                             00000FBA
T2OUTPS0                          00000003
T2OUTPS1                          00000004
T2OUTPS2                          00000005
T2OUTPS3                          00000006
T3CKI_PORTB                       00000005
T3CKI_PORTC                       00000000
T3CKPS0                           00000004
T3CKPS1                           00000005
T3CMX_PORTB5_3                    000000EF
T3CMX_PORTC0_3                    000000FF
T3CON                             00000FB1
T3G                               00000000
T3GCON                            00000FB4
T3GGO                             00000003
T3GGO_NOT_DONE                    00000003
T3GPOL                            00000006
T3GSPM                            00000004
T3GSS0                            00000000
T3GSS1                            00000001
T3GTM                             00000005
T3GVAL                            00000002
T3G_DONE                          00000003
T3OSCEN                           00000003
T3RD16                            00000001
T3SOSCEN                          00000003
T4CKPS0                           00000000
T4CKPS1                           00000001
T4CON                             00000F51
T4OUTPS0                          00000003
T4OUTPS1                          00000004
T4OUTPS2                          00000005
T4OUTPS3                          00000006
T5CKI                             00000002
T5CKPS0                           00000004
T5CKPS1                           00000005
T5CON                             00000F4E
T5G                               00000004
T5GCON                            00000F4D
T5GGO                             00000003
T5GGO_NOT_DONE                    00000003
T5GPOL                            00000006
T5GSPM                            00000004
T5GSS0                            00000000
T5GSS1                            00000001
T5GTM                             00000005
T5GVAL                            00000002
T5G_DONE                          00000003
T5RD16                            00000001
T5SOSCEN                          00000003
T5SYNC                            00000002
T6CKPS0                           00000000
T6CKPS1                           00000001
T6CON                             00000F4A
T6OUTPS0                          00000003
T6OUTPS1                          00000004
T6OUTPS2                          00000005
T6OUTPS3                          00000006
TABLAT                            00000FF5
TBLPTRH                           00000FF7
TBLPTRL                           00000FF6
TBLPTRLH                          00000FF7
TBLPTRLHH                         00000FF8
TBLPTRLHHH                        00000FE8
TBLPTRU                           00000FF8
TGEN                              00000004
TIMER1                            TMR1L
TIMER1H                           TMR1LH
TMR0H                             00000FD7
TMR0IE                            00000005
TMR0IF                            00000002
TMR0IP                            00000002
TMR0L                             00000FD6
TMR0LH                            00000FD7
TMR0ON                            00000007
TMR1CS0                           00000006
TMR1CS1                           00000007
TMR1GE                            00000007
TMR1GIE                           00000000
TMR1GIF                           00000000
TMR1GIP                           00000000
TMR1H                             00000FCF
TMR1IE                            00000000
TMR1IF                            00000000
TMR1IP                            00000000
TMR1L                             00000FCE
TMR1LH                            00000FCF
TMR1MD                            00000000
TMR1ON                            00000000
TMR1_ENABLE                       PIE1,0
TMR1_MS                           1
TMR1_ON                           T1CON,0
TMR1_OVERFLOW                     PIR1,0
TMR1_VAL                          64536
TMR1_VALH                         252
TMR2                              00000FBC
TMR2IE                            00000001
TMR2IF                            00000001
TMR2IP                            00000001
TMR2MD                            00000001
TMR2ON                            00000002
TMR3CS0                           00000006
TMR3CS1                           00000007
TMR3GE                            00000007
TMR3GIE                           00000001
TMR3GIF                           00000001
TMR3GIP                           00000001
TMR3H                             00000FB3
TMR3IE                            00000001
TMR3IF                            00000001
TMR3IP                            00000001
TMR3L                             00000FB2
TMR3LH                            00000FB3
TMR3MD                            00000002
TMR3ON                            00000000
TMR4                              00000F53
TMR4IE                            00000000
TMR4IF                            00000000
TMR4IP                            00000000
TMR4MD                            00000003
TMR4ON                            00000002
TMR5                              00000F4F
TMR5CS0                           00000006
TMR5CS1                           00000007
TMR5GE                            00000007
TMR5GIE                           00000002
TMR5GIF                           00000002
TMR5GIP                           00000002
TMR5H                             00000F50
TMR5IE                            00000001
TMR5IF                            00000001
TMR5IP                            00000001
TMR5L                             00000F4F
TMR5LH                            00000F50
TMR5MD                            00000004
TMR5ON                            00000000
TMR6                              00000F4C
TMR6IE                            00000002
TMR6IF                            00000002
TMR6IP                            00000002
TMR6MD                            00000005
TMR6ON                            00000002
TO                                00000003
TOSH                              00000FFE
TOSL                              00000FFD
TOSLH                             00000FFE
TOSU                              00000FFF
TPS2421EN                         PORTA,4
TPS3823WDI                        PORTC,1
TPS_AKIM                          0000002D
TPS_AKIMH                         0000002E
TRANSPONDER_MODE                  00000013
TRIGSEL                           00000007
TRISA                             00000F92
TRISA0                            00000000
TRISA1                            00000001
TRISA2                            00000002
TRISA3                            00000003
TRISA4                            00000004
TRISA5                            00000005
TRISA6                            00000006
TRISA7                            00000007
TRISB                             00000F93
TRISB0                            00000000
TRISB1                            00000001
TRISB2                            00000002
TRISB3                            00000003
TRISB4                            00000004
TRISB5                            00000005
TRISB6                            00000006
TRISB7                            00000007
TRISC                             00000F94
TRISC0                            00000000
TRISC1                            00000001
TRISC2                            00000002
TRISC3                            00000003
TRISC4                            00000004
TRISC5                            00000005
TRISC6                            00000006
TRISC7                            00000007
TRISE                             00000F96
TRMT                              00000001
TR_MD                             00000014
TR_OFF                            2
TR_ON                             1
TUN0                              00000000
TUN1                              00000001
TUN2                              00000002
TUN3                              00000003
TUN4                              00000004
TUN5                              00000005
TX                                00000006
TX1                               00000006
TX1IE                             00000004
TX1IF                             00000004
TX1IP                             00000004
TX1REG                            00000FAD
TX1STA                            00000FAC
TX2                               00000006
TX2IE                             00000004
TX2IF                             00000004
TX2IP                             00000004
TX2REG                            00000F73
TX2STA                            00000F72
TX9                               00000006
TX9D                              00000000
TXEN                              00000005
TXIE                              00000004
TXIF                              00000004
TXIP                              00000004
TXREG                             00000FAD
TXREG1                            00000FAD
TXREG2                            00000F73
TXSTA                             00000FAC
TXSTA1                            00000FAC
TXSTA2                            00000F72
UA                                00000001
UART1MD                           00000006
UART2MD                           00000007
US                                00000032
USH                               00000033
UZAY                              0
VDIRMAG                           00000007
VPP                               00000003
VREFCON0                          00000F42
VREFCON1                          00000F41
VREFCON2                          00000F40
VREFM                             00000002
VREFN                             00000002
VREFP                             00000003
WCOL                              SSPCON1,7
WDTCON                            00000FD1
WDTEN_NOSLP_2                     000000FD
WDTEN_OFF_2                       000000FC
WDTEN_ON_2                        000000FF
WDTEN_SWON_2                      000000FE
WDTPS_1024_2                      000000EB
WDTPS_128_2                       000000DF
WDTPS_16384_2                     000000FB
WDTPS_16_2                        000000D3
WDTPS_1_2                         000000C3
WDTPS_2048_2                      000000EF
WDTPS_256_2                       000000E3
WDTPS_2_2                         000000C7
WDTPS_32768_2                     000000FF
WDTPS_32_2                        000000D7
WDTPS_4096_2                      000000F3
WDTPS_4_2                         000000CB
WDTPS_512_2                       000000E7
WDTPS_64_2                        000000DB
WDTPS_8192_2                      000000F7
WDTPS_8_2                         000000CF
WORD_BIT                          
WORD_BYTE                         
WORD_DWORD                        
WORD_FLOAT                        
WORD_SDWORD                       
WORD_WORD                         
WORD_WREG                         
WPUB                              00000F61
WPUB0                             00000000
WPUB1                             00000001
WPUB2                             00000002
WPUB3                             00000003
WPUB4                             00000004
WPUB5                             00000005
WPUB6                             00000006
WPUB7                             00000007
WPUE3                             00000007
WR                                00000001
WREG                              00000FE8
WREG_BIT                          
WREG_BYTE                         
WREG_DWORD                        
WREG_FLOAT                        
WREG_SDWORD                       
WREG_SWORD                        
WREG_WORD                         
WREN                              00000002
WRERR                             00000003
WRT0_OFF_6                        000000FF
WRT0_ON_6                         000000FE
WRT1_OFF_6                        000000FF
WRT1_ON_6                         000000FD
WRT2_OFF_6                        000000FF
WRT2_ON_6                         000000FB
WRT3_OFF_6                        000000FF
WRT3_ON_6                         000000F7
WRTB_OFF_6                        000000FF
WRTB_ON_6                         000000BF
WRTC_OFF_6                        000000FF
WRTC_ON_6                         000000DF
WRTD_OFF_6                        000000FF
WRTD_ON_6                         0000007F
WUE                               00000001
XINST_OFF_4                       000000BF
XINST_ON_4                        000000FF
XTAL                              4
Z                                 00000002
_A                                0000001D
_ADC                              19
_ADC_RES                          10
_AH                               0000001E
_B#VR1                            0000004C
_CORE                             16
_CWRITE_BLOCK                     32
_EEPROM                           256
_FLASH                            1
_HIGH__CONTEXT_STORE              0000004F
_HIGH__CONTEXT_STORE#0            0000004F
_HIGH__CONTEXT_STORE#1            00000050
_HIGH__CONTEXT_STORE#2            00000051
_HIGH__CONTEXT_STORE#3            00000052
_I2C_SCL_PIN                      00000003
_I2C_SCL_PORT                     00000F94
_I2C_SDA_PIN                      00000004
_I2C_SDA_PORT                     00000F94
_MAXMEM                           0X4000
_MAXRAM                           768
_N                                0000001F
_NH                               00000020
_R                                00000021
_RAM_END                          768
_RH                               00000022
_S                                00000036
_SH                               00000037
_SYSTEM_VARIABLE_COUNT            19
_USART                            2
_USB                              0
_USB#RAM_START                    0
_X                                00000023
_XH                               00000024
__18F24K22                        1
__ADIN_                           00000098
__CCP1_PIN                        PORTC,2
__CCP2_PIN                        PORTC,7
__DELAY_MS_                       000000C4
__DELAY_MS_W_                     000000C6
__DELAY_US_                       000000DE
__DELAY_US_W_                     000000E0
__DIVIDE_INT_U1616_               0000010A
__DIVIDE_U1616_                   00000106
__EOF                             000005CE
__HIGH_INTERRUPTS_ENABLED         1
__HPWM_                           0000000C
__IDLOC0                          00200000
__IDLOC1                          00200001
__IDLOC2                          00200002
__IDLOC3                          00200003
__IDLOC4                          00200004
__IDLOC5                          00200005
__IDLOC6                          00200006
__IDLOC7                          00200007
__INTERRUPTS_ENABLED              1
__MULTIPLY_U1616_                 00000134
__XTAL                            4


MEMORY USAGE MAP ('X' = USED,  '-' = UNUSED)

0000 : XXXX----XXXXXXXX XXXXXXXXXXXXXXXX XXXXXXXXXXXXXXXX XXXXXXXXXXXXXXXX
0040 : XXXXXXXXXXXXXXXX XXXXXXXXXXXXXXXX XXXXXXXXXXXXXXXX XXXXXXXXXXXXXXXX
0080 : XXXXXXXXXXXXXXXX XXXXXXXXXXXXXXXX XXXXXXXXXXXXXXXX XXXXXXXXXXXXXXXX
00C0 : XXXXXXXXXXXXXXXX XXXXXXXXXXXXXXXX XXXXXXXXXXXXXXXX XXXXXXXXXXXXXXXX
0100 : XXXXXXXXXXXXXXXX XXXXXXXXXXXXXXXX XXXXXXXXXXXXXXXX XXXXXXXXXXXXXXXX
0140 : XXXXXXXXXXXXXXXX XXXXXXXXXXXXXXXX XXXXXXXXXXXXXXXX XXXXXXXXXXXXXXXX
0180 : XXXXXXXXXXXXXXXX XXXXXXXXXXXXXXXX XXXXXXXXXXXXXXXX XXXXXXXXXXXXXXXX
01C0 : XXXXXXXXXXXXXXXX XXXXXXXXXXXXXXXX XXXXXXXXXXXXXXXX XXXXXXXXXXXXXXXX
0200 : XXXXXXXXXXXXXXXX XXXXXXXXXXXXXXXX XXXXXXXXXXXXXXXX XXXXXXXXXXXXXXXX
0240 : XXXXXXXXXXXXXXXX XXXXXXXXXXXXXXXX XXXXXXXXXXXXXXXX XXXXXXXXXXXXXXXX
0280 : XXXXXXXXXXXXXXXX XXXXXXXXXXXXXXXX XXXXXXXXXXXXXXXX XXXXXXXXXXXXXXXX
02C0 : XXXXXXXXXXXXXXXX XXXXXXXXXXXXXXXX XXXXXXXXXXXXXXXX XXXXXXXXXXXXXXXX
0300 : XXXXXXXXXXXXXXXX XXXXXXXXXXXXXXXX XXXXXXXXXXXXXXXX XXXXXXXXXXXXXXXX
0340 : XXXXXXXXXXXXXXXX XXXXXXXXXXXXXXXX XXXXXXXXXXXXXXXX XXXXXXXXXXXXXXXX
0380 : XXXXXXXXXXXXXXXX XXXXXXXXXXXXXXXX XXXXXXXXXXXXXXXX XXXXXXXXXXXXXXXX
03C0 : XXXXXXXXXXXXXXXX XXXXXXXXXXXXXXXX XXXXXXXXXXXXXXXX XXXXXXXXXXXXXXXX
0400 : XXXXXXXXXXXXXXXX XXXXXXXXXXXXXXXX XXXXXXXXXXXXXXXX XXXXXXXXXXXXXXXX
0440 : XXXXXXXXXXXXXXXX XXXXXXXXXXXXXXXX XXXXXXXXXXXXXXXX XXXXXXXXXXXXXXXX
0480 : XXXXXXXXXXXXXXXX XXXXXXXXXXXXXXXX XXXXXXXXXXXXXXXX XXXXXXXXXXXXXXXX
04C0 : XXXXXXXXXXXXXXXX XXXXXXXXXXXXXXXX XXXXXXXXXXXXXXXX XXXXXXXXXXXXXXXX
0500 : XXXXXXXXXXXXXXXX XXXXXXXXXXXXXXXX XXXXXXXXXXXXXXXX XXXXXXXXXXXXXXXX
0540 : XXXXXXXXXXXXXXXX XXXXXXXXXXXXXXXX XXXXXXXXXXXXXXXX XXXXXXXXXXXXXXXX
0580 : XXXXXXXXXXXXXXXX XXXXXXXXXXXXXXXX XXXXXXXXXXXXXXXX XXXXXXXXXXXXXXXX
05C0 : XXXXXXXXXXXXXX-- ---------------- ---------------- ----------------
0000 : -XXX-XX-XXXXXX-- ---------------- ---------------- ----------------

ALL OTHER MEMORY BLOCKS UNUSED.

PROGRAM MEMORY BYTES USED:  1493
PROGRAM MEMORY BYTES FREE: 14891


ERRORS   :     0
WARNINGS :     0 REPORTED,   341 SUPPRESSED
MESSAGES :     1 REPORTED,     1 SUPPRESSED


