MPASM  5.45                               A.S   1-8-2014  21:42:03         PAGE  1


LOC  OBJECT CODE     LINE SOURCE TEXT
  VALUE


                      00002         list
                      00003 ;{
                      00004 ;FILE F1 = C:\PROJELER\DTMF\DTMF.BAS
                      00005 ;FILE F2 = C:\PROJELER\DTMF\DTMF.PRP
                      00006 ;}
                      00007 ;[Variable Listing]
                      00008 ;last_ERR,0034,DT_BYTE,1
                      00009 ;data_count,0035,DT_BYTE,1
                      00010 ;datain,0036,DT_BYTE,1
                      00011 ;dataout,0037,DT_BYTE,1
                      00012 ;datacnt,0038,DT_BYTE,1
                      00013 ;DTMF,0039,DT_BYTE,1
                      00014 ;KOMUT,003A,DT_BYTE,8
                      00015 ;lastKOMUT,0042,DT_BYTE,8
                      00016 ;DTMFcount,004A,DT_BYTE,1
                      00017 ;CEVAP,004B,DT_BYTE,10
                      00018 ;CEVAPlen,0055,DT_BYTE,1
                      00019 ;CEVAPpos,0056,DT_BYTE,1
                      00020 ;BATARYA,0057,DT_BYTE,2
                      00021 ;CASE_SWITCH,0059,DT_BYTE,1
                      00022 ;DataBufferIndex,005A,DT_BYTE,1
                      00023 ;DataBuffer,005C,DT_BYTE,200
                      00024 ;WCOLcounter,0168,DT_BYTE,1
                      00025 ;mycount,0169,DT_BYTE,1
                      00026 ;CSUM,016A,DT_BYTE,1
                      00027 ;sayac,016B,DT_BYTE,1
                      00028 ;LED,0005.1,DT_BIT
                      00029 ;PS0,0081.0,DT_BIT
                      00030 ;PS1,0081.1,DT_BIT
                      00031 ;PS2,0081.2,DT_BIT
                      00032 ;PSA,0081.3,DT_BIT
                      00033 ;INTEDG,0081.6,DT_BIT
                      00034 ;NOT_RBPU,0081.7,DT_BIT
                      00035 ;BF,0094.0,DT_BIT
                      00036 ;UA,0094.1,DT_BIT
                      00037 ;R_W,0094.2,DT_BIT
                      00038 ;S,0094.3,DT_BIT
                      00039 ;P,0094.4,DT_BIT
                      00040 ;D_A,0094.5,DT_BIT
                      00041 ;CKE,0094.6,DT_BIT
                      00042 ;SMP,0094.7,DT_BIT
                      00043 ;CKP,0014.4,DT_BIT
                      00044 ;SSPEN,0014.5,DT_BIT
                      00045 ;SSPOV,0014.6,DT_BIT
                      00046 ;WCOL,0014.7,DT_BIT
                      00047 ;RBIF,000B.0,DT_BIT
                      00048 ;INT0IF,000B.1,DT_BIT
                      00049 ;TMR0IF,000B.2,DT_BIT
                      00050 ;RBIE,000B.3,DT_BIT
                      00051 ;INT0IE,000B.4,DT_BIT
                      00052 ;TMR0IE,000B.5,DT_BIT
                      00053 ;PEIE,000B.6,DT_BIT
MPASM  5.45                               A.S   1-8-2014  21:42:03         PAGE  2


LOC  OBJECT CODE     LINE SOURCE TEXT
  VALUE

                      00054 ;GIE,000B.7,DT_BIT
                      00055 ;TMR1IE,008C.0,DT_BIT
                      00056 ;TMR2IE,008C.1,DT_BIT
                      00057 ;CCP1IE,008C.2,DT_BIT
                      00058 ;SSPIE,008C.3,DT_BIT
                      00059 ;TXIE,008C.4,DT_BIT
                      00060 ;RCIE,008C.5,DT_BIT
                      00061 ;ADIE,008C.6,DT_BIT
                      00062 ;TMR1IF,000C.0,DT_BIT
                      00063 ;TMR2IF,000C.1,DT_BIT
                      00064 ;CCP1IF,000C.2,DT_BIT
                      00065 ;SSPIF,000C.3,DT_BIT
                      00066 ;TXIF,000C.4,DT_BIT
                      00067 ;RCIF,000C.5,DT_BIT
                      00068 ;ADIF,000C.6,DT_BIT
                      00069 ;ADON,001F.0,DT_BIT
                      00070 ;NOT_DONE,001F.2,DT_BIT
                      00071 ;GO_DONE,001F.2,DT_BIT
                      00072 ;CHS0,001F.3,DT_BIT
                      00073 ;CHS1,001F.4,DT_BIT
                      00074 ;CHS2,001F.5,DT_BIT
                      00075 ;ADCS0,001F.6,DT_BIT
                      00076 ;ADCS1,001F.7,DT_BIT
                      00077 ;DataAvailable,005B.0,DT_BIT
                      00078 ;[End Listing]
                      00079 ;[TOTAL VARS] 263

                      00081 #define CONFIG_REQ 1
MESSAGE[308]: WARNING LEVEL SUPERSEDED BY COMMAND LINE VALUE. (2)
                      00082  LIST  P = 16F88, F = INHX8M, W = 2, X = ON, R = DEC, MM = ON, N = 0, C = 255
  00000000            00083 INDF equ 0X0000
  00000001            00084 TMR0 equ 0X0001
  00000002            00085 PCL equ 0X0002
  00000003            00086 STATUS equ 0X0003
  00000004            00087 FSR equ 0X0004
  00000005            00088 PORTA equ 0X0005
  00000006            00089 PORTB equ 0X0006
  0000000A            00090 PCLATH equ 0X000A
  0000000B            00091 INTCON equ 0X000B
  0000000C            00092 PIR1 equ 0X000C
  0000000D            00093 PIR2 equ 0X000D
  0000000E            00094 TMR1L equ 0X000E
  0000000F            00095 TMR1LH equ 0X000F
  0000000F            00096 TMR1H equ 0X000F
  00000010            00097 T1CON equ 0X0010
  00000011            00098 TMR2 equ 0X0011
  00000012            00099 T2CON equ 0X0012
  00000013            00100 SSPBUF equ 0X0013
  00000014            00101 SSPCON equ 0X0014
  00000015            00102 CCPR1L equ 0X0015
  00000016            00103 CCPR1LH equ 0X0016
  00000016            00104 CCPR1H equ 0X0016
  00000017            00105 CCP1CON equ 0X0017
  00000018            00106 RCSTA equ 0X0018
  00000019            00107 TXREG equ 0X0019
  0000001A            00108 RCREG equ 0X001A
  0000001E            00109 ADRESLH equ 0X001E
  0000001E            00110 ADRESH equ 0X001E
  0000001F            00111 ADCON0 equ 0X001F
  00000081            00112 OPTION_REG equ 0X0081
  00000085            00113 TRISA equ 0X0085
  00000086            00114 TRISB equ 0X0086
  0000008C            00115 PIE1 equ 0X008C
  0000008D            00116 PIE2 equ 0X008D
  0000008E            00117 PCON equ 0X008E
  0000008F            00118 OSCCON equ 0X008F
  00000090            00119 OSCTUNE equ 0X0090
  00000092            00120 PR2 equ 0X0092
  00000093            00121 SSPADD equ 0X0093
  00000094            00122 SSPSTAT equ 0X0094
  00000098            00123 TXSTA equ 0X0098
  00000099            00124 SPBRG equ 0X0099
  0000009B            00125 ANSEL equ 0X009B
  0000009C            00126 CMCON equ 0X009C
  0000009D            00127 CVRCON equ 0X009D
  0000009E            00128 ADRESL equ 0X009E
  0000009F            00129 ADCON1 equ 0X009F
  00000105            00130 WDTCON equ 0X0105
  0000010C            00131 EEDATL equ 0X010C
  0000010C            00132 EEDATA equ 0X010C
  0000010C            00133 EEDAT equ 0X010C
  0000010D            00134 EEADR equ 0X010D
  0000010E            00135 EEDATLH equ 0X010E
  0000010E            00136 EEDATH equ 0X010E
  0000010F            00137 EEADRH equ 0X010F
  0000018C            00138 EECON1 equ 0X018C
  0000018D            00139 EECON2 equ 0X018D
  00000086            00140 _I2C_SCL_PORT=TRISB
  00000004            00141 _I2C_SCL_PIN=4
  00000086            00142 _I2C_SDA_PORT=TRISB
  00000001            00143 _I2C_SDA_PIN=1
  00000007            00144 IRP=7
  00000006            00145 RP1=6
  00000005            00146 RP0=5
  00000004            00147 NOT_TO=4
  00000003            00148 NOT_PD=3
  00000002            00149 Z=2
  00000001            00150 DC=1
  00000000            00151 C=0
  00000007            00152 GIE=7
  00000006            00153 PEIE=6
  00000005            00154 TMR0IE=5
  00000004            00155 INTE=4
  00000003            00156 RBIE=3
  00000002            00157 TMR0IF=2
  00000001            00158 INTF=1
  00000000            00159 RBIF=0
  00000006            00160 ADIF=6
  00000005            00161 RCIF=5
  00000005            00162 PP_RCIF=5
  00000004            00163 TXIF=4
  00000004            00164 PP_TXIF=4
  00000003            00165 SSPIF=3
  00000002            00166 CCP1IF=2
  00000001            00167 TMR2IF=1
  00000000            00168 TMR1IF=0
  00000007            00169 OSFIF=7
  00000006            00170 CMIF=6
  00000004            00171 EEIF=4
  00000006            00172 T1RUN=6
  00000005            00173 T1CKPS1=5
  00000004            00174 T1CKPS0=4
  00000003            00175 T1OSCEN=3
  00000002            00176 NOT_T1SYNC=2
  00000002            00177 T1INSYNC=2
  00000001            00178 TMR1CS=1
  00000000            00179 TMR1ON=0
  00000006            00180 TOUTPS3=6
  00000005            00181 TOUTPS2=5
  00000004            00182 TOUTPS1=4
  00000003            00183 TOUTPS0=3
  00000002            00184 TMR2ON=2
  00000002            00185 PP_TMR2ON=2
  00000001            00186 T2CKPS1=1
  00000001            00187 PP_T2CKPS1=1
  00000000            00188 T2CKPS0=0
  00000000            00189 PP_T2CKPS0=0
  00000007            00190 WCOL=7
  00000006            00191 SSPOV=6
  00000005            00192 SSPEN=5
  00000004            00193 CKP=4
  00000003            00194 SSPM3=3
  00000002            00195 SSPM2=2
  00000001            00196 SSPM1=1
  00000000            00197 SSPM0=0
  00000005            00198 CCP1X=5
  00000004            00199 CCP1Y=4
  00000003            00200 CCP1M3=3
  00000002            00201 CCP1M2=2
  00000001            00202 CCP1M1=1
  00000000            00203 CCP1M0=0
  00000007            00204 SPEN=7
  00000006            00205 RX9=6
  00000006            00206 RC9=6
  00000006            00207 NOT_RC8=6
  00000006            00208 RC8_9=6
  00000005            00209 SREN=5
  00000004            00210 CREN=4
  00000004            00211 PP_CREN=4
  00000003            00212 ADDEN=3
  00000002            00213 FERR=2
  00000001            00214 OERR=1
  00000001            00215 PP_OERR=1
  00000000            00216 RX9D=0
  00000000            00217 RCD8=0
  00000007            00218 ADCS1=7
  00000006            00219 ADCS0=6
  00000005            00220 CHS2=5
  00000004            00221 CHS1=4
  00000003            00222 CHS0=3
  00000002            00223 GO=2
  00000002            00224 NOT_DONE=2
  00000002            00225 GO_DONE=2
  00000002            00226 PP_GO_DONE=2
  00000000            00227 ADON=0
  00000007            00228 NOT_RBPU=7
  00000006            00229 INTEDG=6
  00000005            00230 T0CS=5
  00000004            00231 T0SE=4
  00000003            00232 PSA=3
  00000002            00233 PS2=2
  00000001            00234 PS1=1
  00000000            00235 PS0=0
  00000006            00236 ADIE=6
  00000005            00237 RCIE=5
  00000004            00238 TXIE=4
  00000003            00239 SSPIE=3
  00000002            00240 CCP1IE=2
  00000001            00241 TMR2IE=1
  00000000            00242 TMR1IE=0
  00000007            00243 OSFIE=7
  00000006            00244 CMIE=6
  00000004            00245 EEIE=4
  00000001            00246 NOT_POR=1
  00000000            00247 NOT_BO=0
  00000000            00248 NOT_BOR=0
  00000006            00249 IRCF2=6
  00000005            00250 IRCF1=5
  00000004            00251 IRCF0=4
  00000003            00252 OSTS=3
  00000002            00253 IOFS=2
  00000001            00254 SCS1=1
  00000000            00255 SCS0=0
  00000005            00256 TUN5=5
  00000004            00257 TUN4=4
  00000003            00258 TUN3=3
  00000002            00259 TUN2=2
  00000001            00260 TUN1=1
  00000000            00261 TUN0=0
  00000007            00262 SMP=7
  00000006            00263 CKE=6
  00000005            00264 I2C_DATA=5
  00000005            00265 NOT_A=5
  00000005            00266 NOT_ADDRESS=5
  00000005            00267 D_A=5
  00000005            00268 DATA_ADDRESS=5
  00000004            00269 I2C_STOP=4
  00000003            00270 I2C_START=3
  00000002            00271 I2C_READ=2
  00000002            00272 NOT_W=2
  00000002            00273 NOT_WRITE=2
  00000002            00274 R_W=2
  00000002            00275 PP_R_W=2
  00000002            00276 READ_WRITE=2
  00000001            00277 UA=1
  00000000            00278 BF=0
  00000000            00279 PP_BF=0
  00000007            00280 CSRC=7
  00000006            00281 TX9=6
  00000006            00282 NOT_TX8=6
  00000006            00283 TX8_9=6
  00000005            00284 TXEN=5
  00000004            00285 SYNC=4
  00000002            00286 BRGH=2
  00000001            00287 TRMT=1
  00000000            00288 TX9D=0
  00000000            00289 TXD8=0
  00000007            00290 ADFM=7
  00000006            00291 ADCS2=6
  00000005            00292 VCFG1=5
  00000004            00293 VCFG0=4
  00000004            00294 WDTPS3=4
  00000003            00295 WDTPS2=3
  00000002            00296 WDTPS1=2
  00000001            00297 WDTPS0=1
  00000000            00298 SWDTEN=0
  00000000            00299 SWDTE=0
  00000007            00300 C2OUT=7
  00000006            00301 C1OUT=6
  00000005            00302 C2INV=5
  00000004            00303 C1INV=4
  00000003            00304 CIS=3
  00000002            00305 CM2=2
  00000001            00306 CM1=1
  00000000            00307 CM0=0
  00000007            00308 CVREN=7
  00000006            00309 CVROE=6
  00000005            00310 CVRR=5
  00000003            00311 CVR3=3
  00000002            00312 CVR2=2
  00000001            00313 CVR1=1
  00000000            00314 CVR0=0
  00000007            00315 EEPGD=7
  00000007            00316 PP_EEPGD=7
  00000004            00317 FREE=4
  00000003            00318 WRERR=3
  00000003            00319 PP_WRERR=3
  00000002            00320 WREN=2
  00000002            00321 PP_WREN=2
  00000001            00322 WR=1
  00000001            00323 PP_WR=1
  00000000            00324 RD=0
  00000000            00325 PP_RD=0
  000001FF            00326   __MAXRAM 0X1FF
                      00327   __BADRAM 0X07-0X09, 0X1B-0X1D
                      00328   __BADRAM 0X87-0X89, 0X91, 0X95-0X97, 0X9A
                      00329   __BADRAM 0X107-0X109
                      00330   __BADRAM 0X185, 0X187-0X189, 0X18E-0X18F
  00002007            00331 _config1 equ 0X2007
  00002008            00332 _config2 equ 0X2008
  00001FFF            00333 CP_ALL equ 0X1FFF
  00003FFF            00334 CP_OFF equ 0X3FFF
  00003FFF            00335 CCP1_RB0 equ 0X3FFF
  00002FFF            00336 CCP1_RB3 equ 0X2FFF
  00003FFF            00337 DEBUG_OFF equ 0X3FFF
  000037FF            00338 DEBUG_ON equ 0X37FF
  00003FFF            00339 WRT_PROTECT_OFF equ 0X3FFF
  00003DFF            00340 WRT_PROTECT_256 equ 0X3DFF
  00003BFF            00341 WRT_PROTECT_2048 equ 0X3BFF
  000039FF            00342 WRT_PROTECT_ALL equ 0X39FF
  00003EFF            00343 CPD_ON equ 0X3EFF
  00003FFF            00344 CPD_OFF equ 0X3FFF
  00003FFF            00345 LVP_ON equ 0X3FFF
  00003F7F            00346 LVP_OFF equ 0X3F7F
  00003FFF            00347 BODEN_ON equ 0X3FFF
  00003FBF            00348 BODEN_OFF equ 0X3FBF
  00003FFF            00349 MCLR_ON equ 0X3FFF
  00003FDF            00350 MCLR_OFF equ 0X3FDF
  00003FFF            00351 PWRTE_OFF equ 0X3FFF
  00003FF7            00352 PWRTE_ON equ 0X3FF7
  00003FFF            00353 WDT_ON equ 0X3FFF
  00003FFB            00354 WDT_OFF equ 0X3FFB
  00003FFF            00355 EXTRC_CLKOUT equ 0X3FFF
  00003FFE            00356 EXTRC_IO equ 0X3FFE
  00003FFD            00357 INTRC_CLKOUT equ 0X3FFD
  00003FFC            00358 INTRC_IO equ 0X3FFC
  00003FEF            00359 EXTCLK equ 0X3FEF
  00003FEE            00360 HS_OSC equ 0X3FEE
  00003FED            00361 XT_OSC equ 0X3FED
  00003FEC            00362 LP_OSC equ 0X3FEC
  00003FFF            00363 IESO_ON equ 0X3FFF
  00003FFD            00364 IESO_OFF equ 0X3FFD
  00003FFF            00365 FCMEN_ON equ 0X3FFF
  00003FFE            00366 FCMEN_OFF equ 0X3FFE

                      00370 #define __16F88 1
                      00371 #define XTAL 20
                      00372 #define _CORE 14
                      00373 #define _MAXRAM 368
                      00374 #define _RAM_END 0X0170
                      00375 #define _MAXMEM 4096
                      00376 #define _ADC 7
                      00377 #define _ADC_RES 10
                      00378 #define _EEPROM 256
                      00379 #define _PAGES 2
                      00380 #define _BANKS 3
                      00381 #define RAM_BANKS 4
                      00382 #define _USART 1
                      00383 #define _USB 0
                      00384 #define _FLASH 1
                      00385 #define _CWRITE_BLOCK 4
                      00386 #define BANK0_START 0X20
                      00387 #define BANK0_END 0X7B
                      00388 #define BANK1_START 0X00A0
                      00389 #define BANK1_END 0X00EF
                      00390 #define BANK2_START 0X0110
                      00391 #define BANK2_END 0X016F
                      00392 #define BANK3_START 0X0190
                      00393 #define BANK3_END 0X01EF
                      00394 #define _SYSTEM_VARIABLE_COUNT 20
  00000000            00395 ram_bank = 0
  00000000            00396 CURRENT@PAGE = 0
  00000000            00397 DEST@PAGE = 0
                      00398 #define LCD#TYPE 0
                      00399 #define __INTERRUPTS_ENABLED 1
                      00401 f@call macro pDest
                      00402 if(pDest < 1)
                      00403 if((pDest & 2048) == 0)
                      00404         bcf 10,3
                      00405 else
                      00406         bsf 10,3
                      00407 endif
                      00408 else
                      00409 if(pDest > $)
                      00410 if((pDest & 2048) == 0)
                      00411         bcf 10,3
                      00412 else
                      00413         bsf 10,3
                      00414 endif
                      00415 else
                      00416 if((pDest & 6144) == 0)
                      00417         clrf 10
                      00418 else
                      00419 if((pDest & 2048) == 0)
                      00420         bcf 10,3
                      00421 else
                      00422         bsf 10,3
                      00423 endif
                      00424 endif
                      00425 endif
                      00426 endif
                      00427         call pDest
                      00428         endm
                      00429 f@jump macro pDest
                      00430 if(pDest < 1)
                      00431 if((pDest & 2048) == 0)
                      00432         bcf 10,3
                      00433 else
                      00434         bsf 10,3
                      00435 endif
                      00436 else
                      00437 if(pDest > $)
                      00438 if((pDest & 2048) == 0)
                      00439         bcf 10,3
                      00440 else
                      00441         bsf 10,3
                      00442 endif
                      00443 else
                      00444 if((pDest & 6144) == 0)
                      00445         clrf 10
                      00446 else
                      00447 if((pDest & 2048) == 0)
                      00448         bcf 10,3
                      00449 else
                      00450         bsf 10,3
                      00451 endif
                      00452 endif
                      00453 endif
                      00454 endif
                      00455         goto pDest
                      00456         endm
                      00457 set@page macro pDest
                      00458 if((pDest & 2048) == 0)
                      00459         bcf 10,3
                      00460 else
                      00461         bsf 10,3
                      00462 endif
                      00463         endm
                      00464 s@b     macro pVarin
                      00465 if((pVarin & 384) == 0)
                      00466 if(ram_bank == 1)
                      00467         bcf 3,5
                      00468 endif
                      00469 if(ram_bank == 2)
                      00470         bcf 3,6
                      00471 endif
                      00472 if(ram_bank == 3)
                      00473         bcf 3,5
                      00474         bcf 3,6
                      00475 endif
                      00476 ram_bank = 0
                      00477 endif
                      00478 if((pVarin & 384) == 128)
                      00479 if(ram_bank == 0)
                      00480         bsf 3,5
                      00481 endif
                      00482 if(ram_bank == 2)
                      00483         bsf 3,5
                      00484         bcf 3,6
                      00485 endif
                      00486 if(ram_bank == 3)
                      00487         bcf 3,6
                      00488 endif
                      00489 ram_bank = 1
                      00490 endif
                      00491 if((pVarin & 384) == 256)
                      00492 if(ram_bank == 0)
                      00493         bsf 3,6
                      00494 endif
                      00495 if(ram_bank == 1)
                      00496         bcf 3,5
                      00497         bsf 3,6
                      00498 endif
                      00499 if(ram_bank == 3)
                      00500         bcf 3,5
                      00501 endif
                      00502 ram_bank = 2
                      00503 endif
                      00504 if((pVarin & 384) == 384)
                      00505 if(ram_bank == 0)
                      00506         bsf 3,5
                      00507         bsf 3,6
                      00508 endif
                      00509 if(ram_bank == 1)
                      00510         bsf 3,6
                      00511 endif
                      00512 if(ram_bank == 2)
                      00513         bsf 3,5
                      00514 endif
                      00515 ram_bank = 3
                      00516 endif
                      00517         endm
                      00518 r@b     macro
                      00519 if((ram_bank & 1) != 0)
                      00520         bcf 3,5
                      00521 endif
                      00522 if((ram_bank & 2) != 0)
                      00523         bcf 3,6
                      00524 endif
                      00525 ram_bank = 0
                      00526         endm
                      00527 jump macro pLabel
                      00528     goto pLabel
                      00529     endm
                      00530 wreg_byte macro pByteOut
                      00531     s@b pByteOut
                      00532     movwf pByteOut
                      00533     r@b
                      00534     endm
                      00535 wreg_bit macro pVarOut,pBitout
                      00536     s@b pVarOut
                      00537     andlw 1
                      00538     btfsc STATUS,2
                      00539     bcf pVarOut,pBitout
                      00540     btfss STATUS,2
                      00541     bsf pVarOut,pBitout
                      00542     r@b
                      00543     endm
                      00544 wreg_word macro pWordOut
                      00545     s@b pWordOut
                      00546     movwf pWordOut
                      00547     s@b pWordOut+1
                      00548     clrf pWordOut+1
                      00549     r@b
                      00550     endm
                      00551 wreg_dword macro pDwordOut
                      00552     s@b pDwordOut+3
                      00553     clrf pDwordOut+3
                      00554     s@b pDwordOut+2
                      00555     clrf pDwordOut+2
                      00556     s@b pDwordOut+1
                      00557     clrf pDwordOut+1
                      00558     s@b pDwordOut
                      00559     movwf pDwordOut
                      00560     r@b
                      00561     endm
                      00562 byte_wreg macro pByteIn
                      00563     s@b pByteIn
                      00564     movf pByteIn,W
                      00565     r@b
                      00566     endm
                      00567 num_SFR macro pNumIn,pSFROut
                      00569     s@b pSFROut
                      00570     movlw pNumIn
                      00571     movwf pSFROut
                      00572     endm
                      00573 NUM16_SFR macro pNumIn,pSFROut
                      00575     s@b pSFROut
                      00576     movlw (pNumIn & 255)
                      00577     movwf pSFROut
                      00578     s@b pSFROut + 1
                      00579     movlw ((pNumIn >> 8) & 255)
                      00580     movwf pSFROut + 1
                      00581     r@b
                      00582     endm
                      00583 num_wreg macro pNumIn
                      00584     movlw (pNumIn & 255)
                      00585     endm
                      00586 num_byte macro pNumIn,pByteOut
                      00587     s@b pByteOut
                      00588 if(pNumIn == 0)
                      00589     clrf pByteOut
                      00590 else
                      00591     movlw (pNumIn & 255)
                      00592     movwf pByteOut
                      00593 endif
                      00594     r@b
                      00595     endm
                      00596 num_bit macro pNumIn,pVarOut,pBitout
                      00597     s@b pVarOut
                      00598 if((pNumIn & 1) == 1)
                      00599     bsf pVarOut,pBitout
                      00600 else
                      00601     bcf pVarOut,pBitout
                      00602 endif
                      00603     r@b
                      00604     endm
                      00605 num_word macro pNumIn,pWordOut
                      00606 if((pNumIn & 255) == 0)
                      00607     s@b pWordOut
                      00608     clrf pWordOut
                      00609 else
                      00610     s@b pWordOut
                      00611     movlw low (pNumIn)
                      00612     movwf pWordOut
                      00613 endif
                      00614 if(((pNumIn >> 8) & 255) == 0)
                      00615     s@b pWordOut+1
                      00616     clrf pWordOut+1
                      00617 else
                      00618     s@b pWordOut+1
                      00619     movlw high (pNumIn)
                      00620     movwf pWordOut+1
                      00621 endif
                      00622     r@b
                      00623     endm
                      00624 num_dword macro pNumIn,pDwordOut
                      00625 if ((pNumIn >> 24 & 255) == 0)
                      00626     s@b pDwordOut+3
                      00627     clrf pDwordOut+3
                      00628 else
                      00629     s@b pDwordOut+3
                      00630     movlw ((pNumIn >> 24) & 255)
                      00631     movwf pDwordOut+3
                      00632 endif
                      00633 if( ((pNumIn >> 16) & 255) == 0)
                      00634     s@b pDwordOut+2
                      00635     clrf pDwordOut+2
                      00636 else
                      00637     s@b pDwordOut+2
                      00638     movlw ((pNumIn >> 16) & 255)
                      00639     movwf pDwordOut+2
                      00640 endif
                      00641 if( ((pNumIn >> 8) & 255) == 0)
                      00642     s@b pDwordOut+1
                      00643     clrf pDwordOut+1
                      00644 else
                      00645     s@b pDwordOut+1
                      00646     movlw high (pNumIn)
                      00647     movwf pDwordOut+1
                      00648 endif
                      00649 if((pNumIn & 255) == 0)
                      00650     s@b pDwordOut
                      00651     clrf pDwordOut
                      00652 else
                      00653     s@b pDwordOut
                      00654     movlw low (pNumIn)
                      00655     movwf pDwordOut
                      00656 endif
                      00657     r@b
                      00658     endm
                      00659 bit_wreg macro pVarin,pBitIn
                      00660     s@b pVarin
                      00661     clrw
                      00662     btfsc pVarin,pBitIn
                      00663     movlw 1
                      00664     r@b
                      00665     endm
                      00666 bit_byte macro pVarin,pBitIn,pByteOut
                      00667     s@b pVarin
                      00668     clrw
                      00669     btfsc pVarin,pBitIn
                      00670     movlw 1
                      00671     s@b pByteOut
                      00672     movwf pByteOut
                      00673     r@b
                      00674     endm
                      00675 bit_bit macro pVarin,pBitIn,pVarOut,pBitout
                      00676 if((pVarin & 65408) == (pVarOut & 65408))
                      00677     s@b pVarOut
                      00678     btfsc pVarin,pBitIn
                      00679     bsf pVarOut,pBitout
                      00680     btfss pVarin,pBitIn
                      00681     bcf pVarOut,pBitout
                      00682 else
                      00683     s@b pVarin
                      00684     clrdc
                      00685     btfsc pVarin,pBitIn
                      00686     setdc
                      00687     s@b pVarOut
                      00688     skpndc
                      00689     bsf pVarOut,pBitout
                      00690     skpdc
                      00691     bcf pVarOut,pBitout
                      00692 endif
                      00693     endm
                      00694 bit_word macro pVarin,pBitIn,pWordOut
                      00695     s@b pWordOut+1
                      00696     clrf pWordOut+1
                      00697     bit_byte pVarin,pBitIn,pWordOut
                      00698     endm
                      00699 bit_dword macro pVarin,pBitIn,pDwordOut
                      00700     s@b pDwordOut+3
                      00701     clrf pDwordOut+3
                      00702     s@b pDwordOut+2
                      00703     clrf pDwordOut+2
                      00704     s@b pDwordOut+1
                      00705     clrf pDwordOut+1
                      00706     bit_byte pVarin,pBitIn,pDwordOut
                      00707     endm
                      00708 word_wreg macro pWordIn
                      00709     byte_wreg pWordIn
                      00710     endm
                      00711 word_byte macro pWordIn,pByteOut
                      00712     byte_byte pWordIn,pByteOut
                      00713     endm
                      00714 word_bit macro pWordIn,pVarOut,pBitout
                      00715     byte_bit pWordIn, pVarOut, pBitout
                      00716     endm
                      00717 word_word macro pWordIn,pWordOut
                      00718     s@b pWordIn+1
                      00719     movf pWordIn+1,W
                      00720     s@b pWordOut+1
                      00721     movwf pWordOut+1
                      00722     byte_byte pWordIn,pWordOut
                      00723     endm
                      00724 word_dword macro pWordIn,pDwordOut
                      00725     s@b pDwordOut+3
                      00726     clrf pDwordOut+3
                      00727     s@b pDwordOut+2
                      00728     clrf pDwordOut+2
                      00729     byte_byte pWordIn+1,pDwordOut+1
                      00730     byte_byte pWordIn,pDwordOut
                      00731     endm
                      00732 byte_byte macro pByteIn,pByteOut
                      00733     s@b pByteIn
                      00734     movf pByteIn,W
                      00735     s@b pByteOut
                      00736     movwf pByteOut
                      00737     r@b
                      00738     endm
                      00739 byte_word macro pByteIn,pWordOut
                      00740     s@b pWordOut+1
                      00741     clrf pWordOut+1
                      00742     byte_byte pByteIn,pWordOut
                      00743     endm
                      00744 byte_dword macro pByteIn,pDwordOut
                      00745     s@b pDwordOut+3
                      00746     clrf pDwordOut+3
                      00747     s@b pDwordOut+2
                      00748     clrf pDwordOut+2
                      00749     s@b pDwordOut+1
                      00750     clrf pDwordOut+1
                      00751     byte_byte pByteIn,pDwordOut
                      00752     endm
                      00753     byte_bit macro pByteIn,pVarOut,pBitout
                      00754 if((pByteIn & 65408) == (pVarOut & 65408))
                      00755     s@b pByteIn
                      00756     btfsc pByteIn,0
                      00757     bsf pVarOut,pBitout
                      00758     btfss pByteIn,0
                      00759     bcf pVarOut,pBitout
                      00760 else
                      00761     s@b pByteIn
                      00762     rrf pByteIn,W
                      00763     s@b pVarOut
                      00764     skpnc
                      00765     bsf pVarOut,pBitout
                      00766     skpc
                      00767     bcf pVarOut,pBitout
                      00768 endif
                      00769     r@b
                      00770     endm
                      00771 dword_wreg macro pDwordIn
                      00772     byte_wreg pDwordIn
                      00773     endm
                      00774 dword_byte macro pDwordIn,pByteOut
                      00775     byte_byte pDwordIn,pByteOut
                      00776     endm
                      00777 dword_word macro pDwordIn,pWordOut
                      00778     s@b pDwordIn+1
                      00779     movf pDwordIn+1,W
                      00780     s@b pWordOut+1
                      00781     movwf pWordOut+1
                      00782     byte_byte pDwordIn,pWordOut
                      00783     endm
                      00784 dword_dword macro pDwordIn,pDwordOut
                      00785     byte_byte pDwordIn+3,pDwordOut+3
                      00786     byte_byte pDwordIn+2,pDwordOut+2
                      00787     byte_byte pDwordIn+1,pDwordOut+1
                      00788     byte_byte pDwordIn,pDwordOut
                      00789     endm
                      00790 dword_bit macro pDwordIn,pVarOut,pBitout
                      00791     byte_bit pDwordIn,pVarOut,pBitout
                      00792     endm
  0000                00793 variable CURRENT@PAGE = 0
  0000                00794 variable PDESTINATION@PAGE = 0
                      00795 FIND@PAGE macro pLabelIn
                      00796 local CURRENT_ADDR = $
                      00797 local DEST_ADDR = pLabelIn
                      00798 if((CURRENT_ADDR >= 0X1800) && (CURRENT_ADDR <= 0X2000))
                      00799     CURRENT@PAGE = 3
                      00800 endif
                      00801 if((CURRENT_ADDR >= 0X1000) && (CURRENT_ADDR <= 0X1800))
                      00802     CURRENT@PAGE = 2
                      00803 endif
                      00804 if((CURRENT_ADDR >= 0X0800) && (CURRENT_ADDR <= 0X1000))
                      00805     CURRENT@PAGE = 1
                      00806 endif
                      00807 if((CURRENT_ADDR >= 0) && (CURRENT_ADDR <= 0X0800))
                      00808     CURRENT@PAGE = 0
                      00809 endif
                      00810 if((DEST_ADDR >= 0X1800) && (DEST_ADDR <= 0X2000))
                      00811     PDESTINATION@PAGE = 3
                      00812 endif
                      00813 if((DEST_ADDR >= 0X1000) && (DEST_ADDR <= 0X1800))
                      00814     PDESTINATION@PAGE = 2
                      00815 endif
                      00816 if((DEST_ADDR >= 0X0800) && (DEST_ADDR <= 0X1000))
                      00817     PDESTINATION@PAGE = 1
                      00818 endif
                      00819 if((DEST_ADDR >= 0) && (DEST_ADDR <= 0X0800))
                      00820     PDESTINATION@PAGE = 0
                      00821 endif
                      00822     endm
                      00823 num_FSR macro pNumIn
                      00824     num_byte pNumIn, FSR
                      00825 if (((pNumIn >> 8) & 255) == 1)
                      00826     bsf STATUS,7
                      00827 else
                      00828     bcf STATUS,7
                      00829 endif
                      00830     endm
                      00831 label_word macro pLabelIn,pWordOut
                      00832     movlw (pLabelIn & 255)
                      00833     s@b pWordOut
                      00834     movwf pWordOut
                      00835     movlw ((pLabelIn >> 8) & 255)
                      00836     s@b pWordOut+1
                      00837     movwf pWordOut+1
                      00838     r@b
                      00839     endm
                      00840 wreg_sword macro pWordOut
                      00841     s@b pWordOut
                      00842     movwf pWordOut
                      00843     movlw 0
                      00844     btfsc pWordOut,7
                      00845     movlw 255
                      00846     s@b pWordOut+1
                      00847     movwf pWordOut+1
                      00848     r@b
                      00849     endm
                      00850 wreg_sdword macro pDwordOut
                      00851     s@b pDwordOut
                      00852     movwf pDwordOut
                      00853     movlw 0
                      00854     btfsc pDwordOut,7
                      00855     movlw 255
                      00856     s@b pDwordOut+1
                      00857     movwf pDwordOut+1
                      00858     s@b pDwordOut+2
                      00859     movwf pDwordOut+2
                      00860     s@b pDwordOut+3
                      00861     movwf pDwordOut+3
                      00862     r@b
                      00863     endm
                      00864 byte_sword macro pByteIn,pWordOut
                      00865     s@b pByteIn
                      00866     movf pByteIn,W
                      00867     s@b pWordOut
                      00868     movwf pWordOut
                      00869     movlw 0
                      00870     btfsc pWordOut,7
                      00871     movlw 255
                      00872     s@b pWordOut+1
                      00873     movwf pWordOut+1
                      00874     r@b
                      00875     endm
                      00876 byte_sdword macro pByteIn,pDwordOut
                      00877     s@b pByteIn
                      00878     movf pByteIn,W
                      00879     s@b pDwordOut
                      00880     movwf pDwordOut
                      00881     movlw 0
                      00882     btfsc pDwordOut,7
                      00883     movlw 255
                      00884     s@b pDwordOut+1
                      00885     movwf pDwordOut+1
                      00886     s@b pDwordOut+2
                      00887     movwf pDwordOut+2
                      00888     s@b pDwordOut+3
                      00889     movwf pDwordOut+3
                      00890     r@b
                      00891     endm
                      00892 word_sdword macro pWordIn,pDwordOut
                      00893     s@b pWordIn
                      00894     movf pWordIn,W
                      00895     s@b pDwordOut
                      00896     movwf pDwordOut
                      00897     s@b pWordIn+1
                      00898     movf pWordIn+1,W
                      00899     s@b pDwordOut+1
                      00900     movwf pDwordOut+1
                      00901     movlw 0
                      00902     btfsc pDwordOut+1,7
                      00903     movlw 255
                      00904     s@b pDwordOut+2
                      00905     movwf pDwordOut+2
                      00906     s@b pDwordOut+3
                      00907     movwf pDwordOut+3
                      00908     r@b
                      00909     endm
  00000020            00912 GEN3H = 32
  00000021            00913 GEN4 = 33
  00000022            00914 GEN4H = 34
  00000023            00915 PBP#VAR0 = 35
  00000024            00916 PBP#VAR0H = 36
  00000025            00917 PBP#VAR1 = 37
  00000026            00918 PBP#VAR1H = 38
  00000027            00919 PBP#VAR2 = 39
  00000028            00920 PP0 = 40
  00000029            00921 PP0H = 41
  0000002A            00922 PP1 = 42
  0000002B            00923 PP1H = 43
  0000002C            00924 PP3 = 44
  0000002D            00925 PP3H = 45
  0000002E            00926 PP6 = 46
  0000002F            00927 PP6H = 47
  00000030            00928 PP7 = 48
  00000031            00929 PP7H = 49
  00000032            00930 PP8 = 50
  00000033            00931 PP8H = 51
  0000007C            00932 FSRSAVE = 124
  0000007D            00933 PSAVE = 125
  0000007E            00934 SSAVE = 126
  0000007F            00935 WSAVE = 127
  00000034            00936 last_ERR = 52
  00000035            00937 data_count = 53
  00000036            00938 datain = 54
  00000037            00939 dataout = 55
  00000038            00940 datacnt = 56
  00000039            00941 DTMF = 57
  0000003A            00942 KOMUT = 58
  003A                00943 variable KOMUT#0=58,KOMUT#1=59,KOMUT#2=60,KOMUT#3=61
  003E                00944 variable KOMUT#4=62,KOMUT#5=63,KOMUT#6=64,KOMUT#7=65
  00000042            00945 lastKOMUT = 66
  0042                00946 variable lastKOMUT#0=66,lastKOMUT#1=67,lastKOMUT#2=68,lastKOMUT#3=69
  0046                00947 variable lastKOMUT#4=70,lastKOMUT#5=71,lastKOMUT#6=72,lastKOMUT#7=73
  0000004A            00948 DTMFcount = 74
  0000004B            00949 CEVAP = 75
  004B                00950 variable CEVAP#0=75,CEVAP#1=76,CEVAP#2=77,CEVAP#3=78
  004F                00951 variable CEVAP#4=79,CEVAP#5=80,CEVAP#6=81,CEVAP#7=82
  0053                00952 variable CEVAP#8=83,CEVAP#9=84
  00000055            00953 CEVAPlen = 85
  00000056            00954 CEVAPpos = 86
  00000057            00955 BATARYA = 87
  0057                00956 variable BATARYA#0=87,BATARYA#1=88
  00000059            00957 CASE_SWITCH = 89
  0000005A            00958 DataBufferIndex = 90
  0000005B            00959 _B#VR1 = 91
  0000005C            00960 DataBuffer = 92
  005C                00961 variable DataBuffer#0=92,DataBuffer#1=93,DataBuffer#2=94,DataBuffer#3=95
  0060                00962 variable DataBuffer#4=96,DataBuffer#5=97,DataBuffer#6=98,DataBuffer#7=99
  0064                00963 variable DataBuffer#8=100,DataBuffer#9=101,DataBuffer#10=102,DataBuffer#11=103
  0068                00964 variable DataBuffer#12=104,DataBuffer#13=105,DataBuffer#14=106,DataBuffer#15=107
  006C                00965 variable DataBuffer#16=108,DataBuffer#17=109,DataBuffer#18=110,DataBuffer#19=111
  0070                00966 variable DataBuffer#20=112,DataBuffer#21=113,DataBuffer#22=114,DataBuffer#23=115
  0074                00967 variable DataBuffer#24=116,DataBuffer#25=117,DataBuffer#26=118,DataBuffer#27=119
  0078                00968 variable DataBuffer#28=120,DataBuffer#29=121,DataBuffer#30=122,DataBuffer#31=123
  00A0                00969 variable DataBuffer#32=160,DataBuffer#33=161,DataBuffer#34=162,DataBuffer#35=163
  00A4                00970 variable DataBuffer#36=164,DataBuffer#37=165,DataBuffer#38=166,DataBuffer#39=167
  00A8                00971 variable DataBuffer#40=168,DataBuffer#41=169,DataBuffer#42=170,DataBuffer#43=171
  00AC                00972 variable DataBuffer#44=172,DataBuffer#45=173,DataBuffer#46=174,DataBuffer#47=175
  00B0                00973 variable DataBuffer#48=176,DataBuffer#49=177,DataBuffer#50=178,DataBuffer#51=179
  00B4                00974 variable DataBuffer#52=180,DataBuffer#53=181,DataBuffer#54=182,DataBuffer#55=183
  00B8                00975 variable DataBuffer#56=184,DataBuffer#57=185,DataBuffer#58=186,DataBuffer#59=187
  00BC                00976 variable DataBuffer#60=188,DataBuffer#61=189,DataBuffer#62=190,DataBuffer#63=191
  00C0                00977 variable DataBuffer#64=192,DataBuffer#65=193,DataBuffer#66=194,DataBuffer#67=195
  00C4                00978 variable DataBuffer#68=196,DataBuffer#69=197,DataBuffer#70=198,DataBuffer#71=199
  00C8                00979 variable DataBuffer#72=200,DataBuffer#73=201,DataBuffer#74=202,DataBuffer#75=203
  00CC                00980 variable DataBuffer#76=204,DataBuffer#77=205,DataBuffer#78=206,DataBuffer#79=207
  00D0                00981 variable DataBuffer#80=208,DataBuffer#81=209,DataBuffer#82=210,DataBuffer#83=211
  00D4                00982 variable DataBuffer#84=212,DataBuffer#85=213,DataBuffer#86=214,DataBuffer#87=215
  00D8                00983 variable DataBuffer#88=216,DataBuffer#89=217,DataBuffer#90=218,DataBuffer#91=219
  00DC                00984 variable DataBuffer#92=220,DataBuffer#93=221,DataBuffer#94=222,DataBuffer#95=223
  00E0                00985 variable DataBuffer#96=224,DataBuffer#97=225,DataBuffer#98=226,DataBuffer#99=227
  00E4                00986 variable DataBuffer#100=228,DataBuffer#101=229,DataBuffer#102=230,DataBuffer#103=231
  00E8                00987 variable DataBuffer#104=232,DataBuffer#105=233,DataBuffer#106=234,DataBuffer#107=235
  00EC                00988 variable DataBuffer#108=236,DataBuffer#109=237,DataBuffer#110=238,DataBuffer#111=239
  0110                00989 variable DataBuffer#112=272,DataBuffer#113=273,DataBuffer#114=274,DataBuffer#115=275
  0114                00990 variable DataBuffer#116=276,DataBuffer#117=277,DataBuffer#118=278,DataBuffer#119=279
  0118                00991 variable DataBuffer#120=280,DataBuffer#121=281,DataBuffer#122=282,DataBuffer#123=283
  011C                00992 variable DataBuffer#124=284,DataBuffer#125=285,DataBuffer#126=286,DataBuffer#127=287
  0120                00993 variable DataBuffer#128=288,DataBuffer#129=289,DataBuffer#130=290,DataBuffer#131=291
  0124                00994 variable DataBuffer#132=292,DataBuffer#133=293,DataBuffer#134=294,DataBuffer#135=295
  0128                00995 variable DataBuffer#136=296,DataBuffer#137=297,DataBuffer#138=298,DataBuffer#139=299
  012C                00996 variable DataBuffer#140=300,DataBuffer#141=301,DataBuffer#142=302,DataBuffer#143=303
  0130                00997 variable DataBuffer#144=304,DataBuffer#145=305,DataBuffer#146=306,DataBuffer#147=307
  0134                00998 variable DataBuffer#148=308,DataBuffer#149=309,DataBuffer#150=310,DataBuffer#151=311
  0138                00999 variable DataBuffer#152=312,DataBuffer#153=313,DataBuffer#154=314,DataBuffer#155=315
  013C                01000 variable DataBuffer#156=316,DataBuffer#157=317,DataBuffer#158=318,DataBuffer#159=319
  0140                01001 variable DataBuffer#160=320,DataBuffer#161=321,DataBuffer#162=322,DataBuffer#163=323
  0144                01002 variable DataBuffer#164=324,DataBuffer#165=325,DataBuffer#166=326,DataBuffer#167=327
  0148                01003 variable DataBuffer#168=328,DataBuffer#169=329,DataBuffer#170=330,DataBuffer#171=331
  014C                01004 variable DataBuffer#172=332,DataBuffer#173=333,DataBuffer#174=334,DataBuffer#175=335
  0150                01005 variable DataBuffer#176=336,DataBuffer#177=337,DataBuffer#178=338,DataBuffer#179=339
  0154                01006 variable DataBuffer#180=340,DataBuffer#181=341,DataBuffer#182=342,DataBuffer#183=343
  0158                01007 variable DataBuffer#184=344,DataBuffer#185=345,DataBuffer#186=346,DataBuffer#187=347
  015C                01008 variable DataBuffer#188=348,DataBuffer#189=349,DataBuffer#190=350,DataBuffer#191=351
  0160                01009 variable DataBuffer#192=352,DataBuffer#193=353,DataBuffer#194=354,DataBuffer#195=355
  0164                01010 variable DataBuffer#196=356,DataBuffer#197=357,DataBuffer#198=358,DataBuffer#199=359
  00000168            01011 WCOLcounter = 360
  00000169            01012 mycount = 361
  0000016A            01013 CSUM = 362
  0000016B            01014 sayac = 363
                      01015 #define LED PORTA,1
                      01016 #define PS0 OPTION_REG,0
                      01017 #define PS1 OPTION_REG,1
                      01018 #define PS2 OPTION_REG,2
                      01019 #define PSA OPTION_REG,3
                      01020 #define INTEDG OPTION_REG,6
                      01021 #define NOT_RBPU OPTION_REG,7
                      01022 #define BF SSPSTAT,0
                      01023 #define UA SSPSTAT,1
                      01024 #define R_W SSPSTAT,2
                      01025 #define _S SSPSTAT,3
                      01026 #define _P SSPSTAT,4
                      01027 #define D_A SSPSTAT,5
                      01028 #define CKE SSPSTAT,6
                      01029 #define SMP SSPSTAT,7
                      01030 #define CKP SSPCON,4
                      01031 #define SSPEN SSPCON,5
                      01032 #define SSPOV SSPCON,6
                      01033 #define WCOL SSPCON,7
                      01034 #define RBIF INTCON,0
                      01035 #define INT0IF INTCON,1
                      01036 #define TMR0IF INTCON,2
                      01037 #define RBIE INTCON,3
                      01038 #define INT0IE INTCON,4
                      01039 #define TMR0IE INTCON,5
                      01040 #define PEIE INTCON,6
                      01041 #define GIE INTCON,7
                      01042 #define TMR1IE PIE1,0
                      01043 #define TMR2IE PIE1,1
                      01044 #define CCP1IE PIE1,2
                      01045 #define SSPIE PIE1,3
                      01046 #define TXIE PIE1,4
                      01047 #define RCIE PIE1,5
                      01048 #define ADIE PIE1,6
                      01049 #define TMR1IF PIR1,0
                      01050 #define TMR2IF PIR1,1
                      01051 #define CCP1IF PIR1,2
                      01052 #define SSPIF PIR1,3
                      01053 #define TXIF PIR1,4
                      01054 #define RCIF PIR1,5
                      01055 #define ADIF PIR1,6
                      01056 #define ADON ADCON0,0
                      01057 #define NOT_DONE ADCON0,2
                      01058 #define GO_DONE ADCON0,2
                      01059 #define CHS0 ADCON0,3
                      01060 #define CHS1 ADCON0,4
                      01061 #define CHS2 ADCON0,5
                      01062 #define ADCS0 ADCON0,6
                      01063 #define ADCS1 ADCON0,7
                      01064 #define DataAvailable _B#VR1,0
                      01065 #define __XTAL 20
                      01066 #define I2CADDR 50
                      01067 #define err_YOK 0
                      01068 #define err_DEVAM 1
                      01069 #define err_UZUN 2
                      01070 #define err_KISA 3
                      01071 #define err_CSUM 4
                      01072 #define KOMUTlen 6
                      01073 #define STATE1 9
                      01074 #define STATE2 41
                      01075 #define STATE3 12
                      01076 #define STATE4 44
                      01077 #define STATE5 40
                      01078 #define DataBufferLen 200
0000                  01079 proton#code#start
0000                  01080         org 0
0000   0000           01081         nop
0001   3000           01082         movlw (proton#main#start >> 8) & 255
0002   008A           01083         movwf PCLATH
0003   282E           01084         goto proton#main#start
0004                  01085         org 4
0004   00FF           01086         movwf WSAVE
0005   0803           01087         movf STATUS,W
0006   0183           01088         clrf STATUS
0007   00FE           01089         movwf SSAVE
0008   080A           01090         movf PCLATH,W
0009   00FD           01091         movwf PSAVE
000A   3000           01092         movlw (myinterrupt >> 8) & 255
000B   008A           01093         movwf PCLATH
000C   2878           01094         goto myinterrupt
000D                  01095 __DELAY_MS_
000D   01AB           01096         clrf 43
000E                  01097 __DELAY_MS_W_
000E   00AA           01098         movwf 42
000F                  01099 DLY@P
000F   30FF           01100         movlw 255
0010   07AA           01101         addwf 42,F
0011   1C03           01102         skpc
0012   07AB           01103         addwf 43,F
0013   1C03           01104         skpc
0014   282A           01105         goto I@NT
0015   3003           01106         movlw 3
0016   00A9           01107         movwf 41
0017   30E6           01108         movlw 230
0018   201B           01109         call __DELAY_US_W_
0019   280F           01110         goto DLY@P
001A                  01111 __DELAY_US_
001A   01A9           01112         clrf 41
001B                  01113 __DELAY_US_W_
001B   3EFC           01114         addlw 252
001C   00A8           01115         movwf 40
001D   09A9           01116         comf 41,F
001E   1C03           01117         skpc
001F   2826           01118         goto $ + 7
0020   30FF           01119         movlw 255
0021   0000           01120         nop
0022   07A8           01121         addwf 40,F
0023   1803           01122         skpnc
0024   2821           01123         goto $ - 3
0025   07A8           01124         addwf 40,F
0026   0000           01125         nop
0027   0FA9           01126         incfsz 41,F
0028   2820           01127         goto $ - 8
0029   0008           01128         return
002A                  01129 I@NT
002A   1383           01130         bcf STATUS,7
002B   1283           01131         bcf STATUS,5
002C   1303           01132         bcf STATUS,6
002D   0008           01133         return
002E                  01134 proton#main#start
002E   0183           01135         clrf STATUS

  0000002F            01138 F2_SOF equ $ ; DTMF.PRP
  0000002F            01139 F2_EOF equ $ ; DTMF.PRP
  0000002F            01140 F1_SOF equ $ ; DTMF.BAS
  0000002F            01141 F1_000033 equ $ ; IN [DTMF.BAS] ALL_DIGITAL TRUE
002F   3007           01142         movlw 7
0030   1683           01143         bsf STATUS,5
  00000001            01144 ram_bank = 1
0031   009C           01145         movwf CMCON
0032   019B           01146         clrf ANSEL
  00000033            01147 F1_000054 equ $ ; IN [DTMF.BAS] last_ERR = err_YOK
0033   1283           01148         bcf STATUS,5
  00000000            01149 ram_bank = 0
0034   01B4           01150         clrf last_ERR
  00000035            01151 F1_000058 equ $ ; IN [DTMF.BAS] data_count = 0
0035   01B5           01152         clrf data_count
  00000036            01153 F1_000059 equ $ ; IN [DTMF.BAS] TRISB = $FF
0036   30FF           01154         movlw 255
0037   1683           01155         bsf STATUS,5
  00000001            01156 ram_bank = 1
0038   0086           01157         movwf TRISB
  00000039            01158 F1_000060 equ $ ; IN [DTMF.BAS] TRISA.0 = 1
0039   1405           01159         bsf TRISA,0
  0000003A            01160 F1_000061 equ $ ; IN [DTMF.BAS] TRISA.2 = 0
003A   1105           01161         bcf TRISA,2
  0000003B            01162 F1_000062 equ $ ; IN [DTMF.BAS] TRISA.4 = 0
003B   1205           01163         bcf TRISA,4
  0000003C            01164 F1_000071 equ $ ; IN [DTMF.BAS] NOT_RBPU = 1
003C   1781           01165         bsf OPTION_REG,7
  0000003D            01166 F1_000072 equ $ ; IN [DTMF.BAS] INTEDG = 0
003D   1301           01167         bcf OPTION_REG,6
  0000003E            01168 F1_000073 equ $ ; IN [DTMF.BAS] PSA = 0
003E   1181           01169         bcf OPTION_REG,3
  0000003F            01170 F1_000098 equ $ ; IN [DTMF.BAS] INTCON = %11010000
003F   30D0           01171         movlw 208
0040   008B           01172         movwf INTCON
  00000041            01173 F1_000108 equ $ ; IN [DTMF.BAS] PIE1 = %0001000
0041   3008           01174         movlw 8
0042   008C           01175         movwf PIE1
  00000043            01176 F1_000118 equ $ ; IN [DTMF.BAS] PIR1 = 0
0043   1283           01177         bcf STATUS,5
  00000000            01178 ram_bank = 0
0044   018C           01179         clrf PIR1
  00000045            01180 F1_000129 equ $ ; IN [DTMF.BAS] ANSEL  = %00000001
0045   3001           01181         movlw 1
0046   1683           01182         bsf STATUS,5
  00000001            01183 ram_bank = 1
0047   009B           01184         movwf ANSEL
  00000048            01185 F1_000130 equ $ ; IN [DTMF.BAS] ADCON0 = %11000001
0048   30C1           01186         movlw 193
0049   1283           01187         bcf STATUS,5
  00000000            01188 ram_bank = 0
004A   009F           01189         movwf ADCON0
  0000004B            01190 F1_000131 equ $ ; IN [DTMF.BAS] ADCON1 = %10000010
004B   3082           01191         movlw 130
004C   1683           01192         bsf STATUS,5
  00000001            01193 ram_bank = 1
004D   009F           01194         movwf ADCON1
  0000004E            01195 F1_000132 equ $ ; IN [DTMF.BAS] ADIF = 0
004E   1283           01196         bcf STATUS,5
  00000000            01197 ram_bank = 0
004F   130C           01198         bcf PIR1,6
  00000050            01199 F1_000133 equ $ ; IN [DTMF.BAS] ADIE = 0
0050   1683           01200         bsf STATUS,5
  00000001            01201 ram_bank = 1
0051   130C           01202         bcf PIE1,6
  00000052            01203 F1_000134 equ $ ; IN [DTMF.BAS] PEIE = 1
0052   170B           01204         bsf INTCON,6
  00000053            01205 F1_000136 equ $ ; IN [DTMF.BAS] SSPADD = I2CADDR
0053   3032           01206         movlw 50
0054   0093           01207         movwf SSPADD
  00000055            01208 F1_000137 equ $ ; IN [DTMF.BAS] SSPCON = $36
0055   3036           01209         movlw 54
0056   1283           01210         bcf STATUS,5
  00000000            01211 ram_bank = 0
0057   0094           01212         movwf SSPCON
  00000058            01213 F1_000140 equ $ ; IN [DTMF.BAS] PEIE = 1
0058   170B           01214         bsf INTCON,6
  00000059            01215 F1_000141 equ $ ; IN [DTMF.BAS] GIE  = 1
0059   178B           01216         bsf INTCON,7
  0000005A            01217 F1_000150 equ $ ; IN [DTMF.BAS] KOMUT = 11,1,1,1,1,4,12
005A   300B           01218         movlw 11
005B   00BA           01219         movwf KOMUT#0
005C   3001           01220         movlw 1
005D   00BB           01221         movwf KOMUT#1
005E   00BC           01222         movwf KOMUT#2
005F   00BD           01223         movwf KOMUT#3
0060   00BE           01224         movwf KOMUT#4
0061   3004           01225         movlw 4
0062   00BF           01226         movwf KOMUT#5
0063   300C           01227         movlw 12
0064   00C0           01228         movwf KOMUT#6
  00000065            01229 F1_000153 equ $ ; IN [DTMF.BAS] lastKOMUT = KOMUT
0065   01B0           01230         clrf PP7
0066                  01231 PB@LB2
0066   0830           01232         movf PP7,W
0067   3E3A           01233         addlw KOMUT
0068   0084           01234         movwf FSR
0069   0800           01235         movf INDF,W
006A   00A9           01236         movwf PP0H
006B   0830           01237         movf PP7,W
006C   3E42           01238         addlw lastKOMUT
006D   0084           01239         movwf FSR
006E   0829           01240         movf PP0H,W
006F   0080           01241         movwf INDF
0070   0AB0           01242         incf PP7,F
0071   0830           01243         movf PP7,W
0072   3C08           01244         sublw 8
                      01245         set@page PB@LB2
0074   1D03           01246         btfss STATUS,2
0075   2866           01247         goto PB@LB2
  00000076            01248 F1_000176 equ $ ; IN [DTMF.BAS] goto Basla
                      01249         f@jump Basla
0078                  01250 myinterrupt
  00000000            01251 ram_bank = 0
  00000078            01252 F1_000178 equ $ ; IN [DTMF.BAS] CONTEXT SAVE
  00000000            01253 ram_bank = 0
  00000078            01254 F1_000179 equ $ ; IN [DTMF.BAS] GIE = 0
0078   138B           01255         bcf INTCON,7
  00000079            01256 F1_000181 equ $ ; IN [DTMF.BAS] if SSPIF = 1 THEN
                      01257         set@page BC@LL4
007A   1D8C           01258         btfss PIR1,3
007B   289E           01259         goto BC@LL4
  0000007C            01260 F1_000182 equ $ ; IN [DTMF.BAS] SSPIF = 0
007C   118C           01261         bcf PIR1,3
  0000007D            01262 F1_000189 equ $ ; IN [DTMF.BAS] if R_W = 1 THEN
                      01263         set@page BC@LL6
007E   1683           01264         bsf STATUS,5
  00000001            01265 ram_bank = 1
007F   1083           01266         bcf STATUS,1
0080   1D14           01267         btfss SSPSTAT,2
0081   1483           01268         bsf STATUS,1
0082   1283           01269         bcf STATUS,5
  00000000            01270 ram_bank = 0
0083   1883           01271         btfsc STATUS,1
0084   289E           01272         goto BC@LL6
  00000085            01273 F1_000191 equ $ ; IN [DTMF.BAS] if D_A = 0 THEN
                      01274         set@page BC@LL8
0086   1683           01275         bsf STATUS,5
  00000001            01276 ram_bank = 1
0087   1083           01277         bcf STATUS,1
0088   1A94           01278         btfsc SSPSTAT,5
0089   1483           01279         bsf STATUS,1
008A   1283           01280         bcf STATUS,5
  00000000            01281 ram_bank = 0
008B   1883           01282         btfsc STATUS,1
008C   289A           01283         goto BC@LL8
  0000008D            01284 F1_000192 equ $ ; IN [DTMF.BAS] WCOL = 0
008D   1394           01285         bcf SSPCON,7
  0000008E            01286 F1_000193 equ $ ; IN [DTMF.BAS] if BF = 0  THEN SSPOV = 1
                      01287         set@page BC@LL10
008F   1683           01288         bsf STATUS,5
  00000001            01289 ram_bank = 1
0090   0C14           01290         rrf SSPSTAT,W
0091   1283           01291         bcf STATUS,5
  00000000            01292 ram_bank = 0
0092   1803           01293         btfsc STATUS,0
0093   2895           01294         goto BC@LL10
0094   1714           01295         bsf SSPCON,6
0095                  01296 BC@LL10
  00000095            01297 F1_000195 equ $ ; IN [DTMF.BAS] SSPBUF = $36
0095   3036           01298         movlw 54
0096   0093           01299         movwf SSPBUF
  00000097            01300 F1_000196 equ $ ; IN [DTMF.BAS] CKP = 1
0097   1614           01301         bsf SSPCON,4
                      01302         f@jump BC@LL11
009A                  01303 BC@LL8
  0000009A            01304 F1_000197 equ $ ; IN [DTMF.BAS] else
  0000009A            01305 F1_000200 equ $ ; IN [DTMF.BAS] SSPOV = 1
009A   1714           01306         bsf SSPCON,6
  0000009B            01307 F1_000202 equ $ ; IN [DTMF.BAS] SSPBUF = $63
009B   3063           01308         movlw 99
009C   0093           01309         movwf SSPBUF
  0000009D            01310 F1_000203 equ $ ; IN [DTMF.BAS] CKP = 1
009D   1614           01311         bsf SSPCON,4
  0000009E            01312 F1_000204 equ $ ; IN [DTMF.BAS] endif
009E                  01313 BC@LL11
  0000009E            01314 F1_000205 equ $ ; IN [DTMF.BAS] endif
009E                  01315 BC@LL6
  0000009E            01316 F1_000206 equ $ ; IN [DTMF.BAS] endif
009E                  01317 BC@LL4
  0000009E            01318 F1_000211 equ $ ; IN [DTMF.BAS] if INT0IF = 1 THEN GOSUB RB0int
                      01319         set@page BC@LL13
009F   1C8B           01320         btfss INTCON,1
00A0   28A3           01321         goto BC@LL13
                      01322         f@call RB0int
00A3                  01323 BC@LL13
  000000A3            01324 F1_000212 equ $ ; IN [DTMF.BAS] if ADIF   = 1 THEN GOSUB ADCONready
                      01325         set@page BC@LL15
00A4   1F0C           01326         btfss PIR1,6
00A5   28A8           01327         goto BC@LL15
                      01328         f@call ADCONready
00A8                  01329 BC@LL15
  000000A8            01330 F1_000213 equ $ ; IN [DTMF.BAS] GIE = 1
00A8   178B           01331         bsf INTCON,7
  000000A9            01332 F1_000214 equ $ ; IN [DTMF.BAS] CONTEXT RESTORE
00A9   087D           01333         movf PSAVE,W
00AA   008A           01334         movwf PCLATH
00AB   087E           01335         movf SSAVE,W
00AC   0083           01336         movwf STATUS
00AD   0EFF           01337         swapf WSAVE,F
00AE   0E7F           01338         swapf WSAVE,W
00AF   0009           01339         retfie
00B0                  01340 ADCONready
  000000B0            01341 F1_000217 equ $ ; IN [DTMF.BAS] ADIF = 0
00B0   130C           01342         bcf PIR1,6
  000000B1            01343 F1_000218 equ $ ; IN [DTMF.BAS] BATARYA[0] = ADRESH
00B1   081E           01344         movf ADRESH,W
00B2   00D7           01345         movwf BATARYA#0
  000000B3            01346 F1_000219 equ $ ; IN [DTMF.BAS] BATARYA[1] = ADRESL
00B3   1683           01347         bsf STATUS,5
  00000001            01348 ram_bank = 1
00B4   081E           01349         movf ADRESL,W
00B5   1283           01350         bcf STATUS,5
  00000000            01351 ram_bank = 0
00B6   00D8           01352         movwf BATARYA#1
  000000B7            01353 F1_000220 equ $ ; IN [DTMF.BAS] if (BATARYA[0] * 256 + BATARYA[1]) > 500 THEN
00B7   0857           01354         movf BATARYA#0,W
00B8   00A5           01355         movwf PBP#VAR1
00B9   0825           01356         movf PBP#VAR1,W
00BA   00B1           01357         movwf PP7H
00BB   01B0           01358         clrf PP7
00BC   0858           01359         movf BATARYA#1,W
00BD   00A7           01360         movwf PBP#VAR2
00BE   0827           01361         movf PBP#VAR2,W
00BF   0730           01362         addwf PP7,W
00C0   00A3           01363         movwf PBP#VAR0
00C1   0831           01364         movf PP7H,W
00C2   1803           01365         btfsc STATUS,0
00C3   3E01           01366         addlw 1
00C4   00A4           01367         movwf PBP#VAR0H
00C5   3001           01368         movlw 1
00C6   0224           01369         subwf PBP#VAR0H,W
                      01370         set@page BC@LL17
00C8   1C03           01371         btfss STATUS,0
00C9   28D7           01372         goto BC@LL17
                      01373         set@page CP@LB2
00CB   1D03           01374         btfss STATUS,2
00CC   28D2           01375         goto CP@LB2
00CD   30F5           01376         movlw 245
00CE   0223           01377         subwf PBP#VAR0,W
                      01378         set@page BC@LL17
00D0   1C03           01379         btfss STATUS,0
00D1   28D7           01380         goto BC@LL17
00D2                  01381 CP@LB2
  000000FF            01382 ram_bank = 255
  000000D2            01383 F1_000221 equ $ ; IN [DTMF.BAS] high PORTA.2
  00000001            01384 ram_bank = 1
00D2   1105           01385         bcf TRISA,2
00D3   1283           01386         bcf STATUS,5
  00000000            01387 ram_bank = 0
00D4   1505           01388         bsf PORTA,2
                      01389         f@jump BC@LL18
00D7                  01390 BC@LL17
  000000D7            01391 F1_000222 equ $ ; IN [DTMF.BAS] else
  000000D7            01392 F1_000223 equ $ ; IN [DTMF.BAS] low PORTA.2
00D7   1683           01393         bsf STATUS,5
  00000001            01394 ram_bank = 1
00D8   1105           01395         bcf TRISA,2
00D9   1283           01396         bcf STATUS,5
  00000000            01397 ram_bank = 0
00DA   1105           01398         bcf PORTA,2
  000000DB            01399 F1_000224 equ $ ; IN [DTMF.BAS] endif
00DB                  01400 BC@LL18
  000000DB            01401 F1_000225 equ $ ; IN [DTMF.BAS] return
00DB   0008           01402         return
00DC                  01403 RB0int
  000000DC            01404 F1_000229 equ $ ; IN [DTMF.BAS] INT0IF = 0
00DC   108B           01405         bcf INTCON,1
  000000DD            01406 F1_000230 equ $ ; IN [DTMF.BAS] DTMF = (PORTB.6 * 8) + (PORTB.5 * 4) + (PORTB.2 * 2) + PORTB.3
00DD   3000           01407         movlw 0
00DE   1B06           01408         btfsc PORTB,6
00DF   3001           01409         movlw 1
00E0   01B1           01410         clrf PP7H
00E1   00B0           01411         movwf PP7
00E2   3003           01412         movlw 3
00E3   00A8           01413         movwf PP0
00E4                  01414 M@LB2
00E4   1003           01415         bcf STATUS,0
00E5   0DB0           01416         rlf PP7,F
00E6   0DB1           01417         rlf PP7H,F
00E7   03A8           01418         decf PP0,F
                      01419         set@page M@LB2
00E9   1D03           01420         btfss STATUS,2
00EA   28E4           01421         goto M@LB2
00EB   3000           01422         movlw 0
00EC   1A86           01423         btfsc PORTB,5
00ED   3001           01424         movlw 1
00EE   01B3           01425         clrf PP8H
00EF   00B2           01426         movwf PP8
00F0   0DB2           01427         rlf PP8,F
00F1   0DB3           01428         rlf PP8H,F
00F2   0DB2           01429         rlf PP8,F
00F3   0DB3           01430         rlf PP8H,F
00F4   30FC           01431         movlw 252
00F5   05B2           01432         andwf PP8,F
00F6   0832           01433         movf PP8,W
00F7   07B0           01434         addwf PP7,F
00F8   0833           01435         movf PP8H,W
00F9   1803           01436         btfsc STATUS,0
00FA   3E01           01437         addlw 1
00FB   07B1           01438         addwf PP7H,F
00FC   3000           01439         movlw 0
00FD   1906           01440         btfsc PORTB,2
00FE   3001           01441         movlw 1
00FF   01B3           01442         clrf PP8H
0100   00B2           01443         movwf PP8
0101   1003           01444         bcf STATUS,0
0102   0DB2           01445         rlf PP8,F
0103   0DB3           01446         rlf PP8H,F
0104   0832           01447         movf PP8,W
0105   07B0           01448         addwf PP7,F
0106   0833           01449         movf PP8H,W
0107   1803           01450         btfsc STATUS,0
0108   3E01           01451         addlw 1
0109   07B1           01452         addwf PP7H,F
010A   0830           01453         movf PP7,W
010B   1986           01454         btfsc PORTB,3
010C   3E01           01455         addlw 1
010D   00B9           01456         movwf DTMF
  0000010E            01457 F1_000231 equ $ ; IN [DTMF.BAS] if DTMF = 11 THEN
010E   300B           01458         movlw 11
010F   0239           01459         subwf DTMF,W
                      01460         set@page BC@LL20
0111   1D03           01461         btfss STATUS,2
0112   2918           01462         goto BC@LL20
  00000113            01463 F1_000232 equ $ ; IN [DTMF.BAS] last_ERR  = err_DEVAM
0113   3001           01464         movlw 1
0114   00B4           01465         movwf last_ERR
  00000115            01466 F1_000233 equ $ ; IN [DTMF.BAS] DTMFcount = 0
0115   01CA           01467         clrf DTMFcount
                      01468         f@jump BC@LL21
0118                  01469 BC@LL20
  00000118            01470 F1_000234 equ $ ; IN [DTMF.BAS] else
  00000118            01471 F1_000235 equ $ ; IN [DTMF.BAS] DTMFcount = DTMFcount + 1
0118   0ACA           01472         incf DTMFcount,F
  00000119            01473 F1_000236 equ $ ; IN [DTMF.BAS] endif
0119                  01474 BC@LL21
  00000119            01475 F1_000237 equ $ ; IN [DTMF.BAS] TOGGLE LED
0119   3002           01476         movlw 2
011A   0685           01477         xorwf PORTA,F
011B   1683           01478         bsf STATUS,5
  00000001            01479 ram_bank = 1
011C   1085           01480         bcf TRISA,1
  0000011D            01481 F1_000238 equ $ ; IN [DTMF.BAS] KOMUT[DTMFcount] = DTMF
011D   1283           01482         bcf STATUS,5
  00000000            01483 ram_bank = 0
011E   084A           01484         movf DTMFcount,W
011F   3E3A           01485         addlw KOMUT
0120   0084           01486         movwf FSR
0121   0839           01487         movf DTMF,W
0122   0080           01488         movwf INDF
  00000123            01489 F1_000239 equ $ ; IN [DTMF.BAS] if DTMF = 12 THEN
0123   300C           01490         movlw 12
0124   0239           01491         subwf DTMF,W
                      01492         set@page BC@LL23
0126   1D03           01493         btfss STATUS,2
0127   2980           01494         goto BC@LL23
  00000128            01495 F1_000240 equ $ ; IN [DTMF.BAS] last_ERR = err_YOK
0128   01B4           01496         clrf last_ERR
  00000129            01497 F1_000241 equ $ ; IN [DTMF.BAS] if DTMFcount = KOMUTlen THEN
0129   3006           01498         movlw 6
012A   024A           01499         subwf DTMFcount,W
                      01500         set@page BC@LL25
012C   1D03           01501         btfss STATUS,2
012D   2972           01502         goto BC@LL25
  0000012E            01503 F1_000243 equ $ ; IN [DTMF.BAS] CSUM = 0
012E   1703           01504         bsf STATUS,6
  00000002            01505 ram_bank = 2
012F   01EA           01506         clrf CSUM
  00000130            01507 F1_000245 equ $ ; IN [DTMF.BAS] FOR sayac = 1 TO KOMUTlen - 2
0130   3001           01508         movlw 1
0131   00EB           01509         movwf sayac
0132                  01510 FR@LB26
0132   1303           01511         bcf STATUS,6
  00000000            01512 ram_bank = 0
0133   3005           01513         movlw 5
0134   1703           01514         bsf STATUS,6
  00000002            01515 ram_bank = 2
0135   026B           01516         subwf sayac,W
                      01517         set@page NX@LB27
0137   1303           01518         bcf STATUS,6
  00000000            01519 ram_bank = 0
0138   1803           01520         btfsc STATUS,0
0139   294C           01521         goto NX@LB27
  0000013A            01522 F1_000246 equ $ ; IN [DTMF.BAS] CSUM = CSUM + KOMUT[sayac]
013A   1703           01523         bsf STATUS,6
  00000002            01524 ram_bank = 2
013B   086B           01525         movf sayac,W
013C   3E3A           01526         addlw KOMUT
013D   0084           01527         movwf FSR
013E   0800           01528         movf INDF,W
013F   1303           01529         bcf STATUS,6
  00000000            01530 ram_bank = 0
0140   00A3           01531         movwf PBP#VAR0
0141   0823           01532         movf PBP#VAR0,W
0142   1703           01533         bsf STATUS,6
  00000002            01534 ram_bank = 2
0143   07EA           01535         addwf CSUM,F
0144                  01536 CT@LB28
0144   1303           01537         bcf STATUS,6
  00000000            01538 ram_bank = 0
  00000145            01539 F1_000247 equ $ ; IN [DTMF.BAS] NEXT sayac
0145   3001           01540         movlw 1
0146   1703           01541         bsf STATUS,6
  00000002            01542 ram_bank = 2
0147   07EB           01543         addwf sayac,F
                      01544         set@page FR@LB26
0149   1303           01545         bcf STATUS,6
  00000000            01546 ram_bank = 0
014A   1C03           01547         btfss STATUS,0
014B   2932           01548         goto FR@LB26
014C                  01549 NX@LB27
  0000014C            01550 F1_000248 equ $ ; IN [DTMF.BAS] if KOMUT[5] = (CSUM & $0F) THEN
014C   083F           01551         movf KOMUT#5,W
014D   00A3           01552         movwf PBP#VAR0
014E   300F           01553         movlw 15
014F   1703           01554         bsf STATUS,6
  00000002            01555 ram_bank = 2
0150   056A           01556         andwf CSUM,W
0151   1303           01557         bcf STATUS,6
  00000000            01558 ram_bank = 0
0152   01A6           01559         clrf PBP#VAR1H
0153   00A5           01560         movwf PBP#VAR1
0154   08A6           01561         movf PBP#VAR1H,F
                      01562         set@page BC@LL30
0156   1D03           01563         btfss STATUS,2
0157   2970           01564         goto BC@LL30
0158   0825           01565         movf PBP#VAR1,W
0159   0223           01566         subwf PBP#VAR0,W
                      01567         set@page BC@LL30
015B   1D03           01568         btfss STATUS,2
015C   2970           01569         goto BC@LL30
  0000015D            01570 F1_000249 equ $ ; IN [DTMF.BAS] lastKOMUT = KOMUT
015D   01B0           01571         clrf PP7
015E                  01572 PB@LB31
015E   0830           01573         movf PP7,W
015F   3E3A           01574         addlw KOMUT
0160   0084           01575         movwf FSR
0161   0800           01576         movf INDF,W
0162   00A9           01577         movwf PP0H
0163   0830           01578         movf PP7,W
0164   3E42           01579         addlw lastKOMUT
0165   0084           01580         movwf FSR
0166   0829           01581         movf PP0H,W
0167   0080           01582         movwf INDF
0168   0AB0           01583         incf PP7,F
0169   0830           01584         movf PP7,W
016A   3C08           01585         sublw 8
                      01586         set@page PB@LB31
016C   1D03           01587         btfss STATUS,2
016D   295E           01588         goto PB@LB31
                      01589         f@jump BC@LL32
0170                  01590 BC@LL30
  00000170            01591 F1_000250 equ $ ; IN [DTMF.BAS] else
  00000170            01592 F1_000251 equ $ ; IN [DTMF.BAS] last_ERR = err_CSUM
0170   3004           01593         movlw 4
0171   00B4           01594         movwf last_ERR
  00000172            01595 F1_000252 equ $ ; IN [DTMF.BAS] endif
0172                  01596 BC@LL32
  00000172            01597 F1_000253 equ $ ; IN [DTMF.BAS] endif
0172                  01598 BC@LL25
  00000172            01599 F1_000254 equ $ ; IN [DTMF.BAS] if DTMFcount < (KOMUTlen - 1) THEN  last_ERR = err_KISA
0172   3005           01600         movlw 5
0173   024A           01601         subwf DTMFcount,W
                      01602         set@page BC@LL34
0175   1803           01603         btfsc STATUS,0
0176   2979           01604         goto BC@LL34
0177   3003           01605         movlw 3
0178   00B4           01606         movwf last_ERR
0179                  01607 BC@LL34
  00000179            01608 F1_000255 equ $ ; IN [DTMF.BAS] if DTMFcount > (KOMUTlen + 1) THEN  last_ERR = err_UZUN
0179   3008           01609         movlw 8
017A   024A           01610         subwf DTMFcount,W
                      01611         set@page BC@LL36
017C   1C03           01612         btfss STATUS,0
017D   2980           01613         goto BC@LL36
017E   3002           01614         movlw 2
017F   00B4           01615         movwf last_ERR
0180                  01616 BC@LL36
  00000180            01617 F1_000256 equ $ ; IN [DTMF.BAS] endif
0180                  01618 BC@LL23
  00000180            01619 F1_000257 equ $ ; IN [DTMF.BAS] if DTMFcount > KOMUTlen THEN
0180   3007           01620         movlw 7
0181   024A           01621         subwf DTMFcount,W
                      01622         set@page BC@LL38
0183   1C03           01623         btfss STATUS,0
0184   2988           01624         goto BC@LL38
  00000185            01625 F1_000258 equ $ ; IN [DTMF.BAS] DTMFcount = 0
0185   01CA           01626         clrf DTMFcount
  00000186            01627 F1_000259 equ $ ; IN [DTMF.BAS] last_ERR = err_UZUN
0186   3002           01628         movlw 2
0187   00B4           01629         movwf last_ERR
  00000188            01630 F1_000260 equ $ ; IN [DTMF.BAS] endif
0188                  01631 BC@LL38
  00000188            01632 F1_000261 equ $ ; IN [DTMF.BAS] return
0188   0008           01633         return
0189                  01634 i2cslave
  00000189            01635 F1_000266 equ $ ; IN [DTMF.BAS] CLEAR SSPIF
0189   118C           01636         bcf PIR1,3
  0000018A            01637 F1_000267 equ $ ; IN [DTMF.BAS] if R_W = 1 THEN datain = SSPBUF
                      01638         set@page BC@LL40
018B   1683           01639         bsf STATUS,5
  00000001            01640 ram_bank = 1
018C   1083           01641         bcf STATUS,1
018D   1D14           01642         btfss SSPSTAT,2
018E   1483           01643         bsf STATUS,1
018F   1283           01644         bcf STATUS,5
  00000000            01645 ram_bank = 0
0190   1883           01646         btfsc STATUS,1
0191   2994           01647         goto BC@LL40
0192   0813           01648         movf SSPBUF,W
0193   00B6           01649         movwf datain
0194                  01650 BC@LL40
  00000194            01651 F1_000274 equ $ ; IN [DTMF.BAS] return
0194   0008           01652         return
0195                  01653 i2cwr
  00000195            01654 F1_000277 equ $ ; IN [DTMF.BAS] datain = SSPBUF
0195   0813           01655         movf SSPBUF,W
0196   00B6           01656         movwf datain
  00000197            01657 F1_000278 equ $ ; IN [DTMF.BAS] SSPOV = 0
0197   1314           01658         bcf SSPCON,6
  00000198            01659 F1_000296 equ $ ; IN [DTMF.BAS] return
0198   0008           01660         return
0199                  01661 i2crd
  00000199            01662 F1_000300 equ $ ; IN [DTMF.BAS] SSPBUF = $36
0199   3036           01663         movlw 54
019A   0093           01664         movwf SSPBUF
  0000019B            01665 F1_000306 equ $ ; IN [DTMF.BAS] return
019B   0008           01666         return
019C                  01667 Basla
  0000019C            01668 F1_000310 equ $ ; IN [DTMF.BAS] DELAYMS 100
019C   3064           01669         movlw 100
                      01670         f@call __DELAY_MS_
  0000019F            01671 F1_000311 equ $ ; IN [DTMF.BAS] high PORTA.4
019F   1683           01672         bsf STATUS,5
  00000001            01673 ram_bank = 1
01A0   1205           01674         bcf TRISA,4
01A1   1283           01675         bcf STATUS,5
  00000000            01676 ram_bank = 0
01A2   1605           01677         bsf PORTA,4
  000001A3            01678 F1_000312 equ $ ; IN [DTMF.BAS] GO_DONE = 1
01A3   151F           01679         bsf ADCON0,2
01A4                  01680 Dongu
  000001A4            01681 F1_000316 equ $ ; IN [DTMF.BAS] goto Dongu
                      01682         f@jump Dongu
  000001A6            01683 F1_000321 equ $ ; IN [DTMF.BAS] end
01A6                  01684 PB@LB41
                      01685         f@jump PB@LB41
  000001A8            01686 F1_EOF equ $ ; DTMF.BAS
01A8                  01687 PB@LB42
                      01688         f@jump PB@LB42
01AA                  01690 __EOF
2007   3F60           01691 __config _config1, CP_OFF&DEBUG_OFF&WRT_PROTECT_OFF&CPD_OFF&LVP_OFF&BODEN_ON&MCLR_ON&PWRTE_ON&WDT_OFF&HS_OSC&IESO_OFF&FCMEN_OFF
                      01692         end
MPASM  5.45                               A.S   1-8-2014  21:42:03         PAGE  3


SYMBOL TABLE
  LABEL                             VALUE 

ADCON0                            0000001F
ADCON1                            0000009F
ADCONREADY                        000000B0
ADCS0                             ADCON0,6
ADCS1                             ADCON0,7
ADCS2                             00000006
ADDEN                             00000003
ADFM                              00000007
ADIE                              PIE1,6
ADIF                              PIR1,6
ADON                              ADCON0,0
ADRESH                            0000001E
ADRESL                            0000009E
ADRESLH                           0000001E
ANSEL                             0000009B
BANK0_END                         0X7B
BANK0_START                       0X20
BANK1_END                         0X00EF
BANK1_START                       0X00A0
BANK2_END                         0X016F
BANK2_START                       0X0110
BANK3_END                         0X01EF
BANK3_START                       0X0190
BASLA                             0000019C
BATARYA                           00000057
BATARYA#0                         00000057
BATARYA#1                         00000058
BC@LL10                           00000095
BC@LL11                           0000009E
BC@LL13                           000000A3
BC@LL15                           000000A8
BC@LL17                           000000D7
BC@LL18                           000000DB
BC@LL20                           00000118
BC@LL21                           00000119
BC@LL23                           00000180
BC@LL25                           00000172
BC@LL30                           00000170
BC@LL32                           00000172
BC@LL34                           00000179
BC@LL36                           00000180
BC@LL38                           00000188
BC@LL4                            0000009E
BC@LL40                           00000194
BC@LL6                            0000009E
BC@LL8                            0000009A
BF                                SSPSTAT,0
BIT_BIT                           
BIT_BYTE                          
BIT_DWORD                         
BIT_WORD                          
BIT_WREG                          
BODEN_OFF                         00003FBF
BODEN_ON                          00003FFF
BRGH                              00000002
BYTE_BIT                          
BYTE_BYTE                         
BYTE_DWORD                        
BYTE_SDWORD                       
BYTE_SWORD                        
BYTE_WORD                         
BYTE_WREG                         
C                                 00000000
C1INV                             00000004
C1OUT                             00000006
C2INV                             00000005
C2OUT                             00000007
CASE_SWITCH                       00000059
CCP1CON                           00000017
CCP1IE                            PIE1,2
CCP1IF                            PIR1,2
CCP1M0                            00000000
CCP1M1                            00000001
CCP1M2                            00000002
CCP1M3                            00000003
CCP1X                             00000005
CCP1Y                             00000004
CCP1_RB0                          00003FFF
CCP1_RB3                          00002FFF
CCPR1H                            00000016
CCPR1L                            00000015
CCPR1LH                           00000016
CEVAP                             0000004B
CEVAP#0                           0000004B
CEVAP#1                           0000004C
CEVAP#2                           0000004D
CEVAP#3                           0000004E
CEVAP#4                           0000004F
CEVAP#5                           00000050
CEVAP#6                           00000051
CEVAP#7                           00000052
CEVAP#8                           00000053
CEVAP#9                           00000054
CEVAPLEN                          00000055
CEVAPPOS                          00000056
CHS0                              ADCON0,3
CHS1                              ADCON0,4
CHS2                              ADCON0,5
CIS                               00000003
CKE                               SSPSTAT,6
CKP                               SSPCON,4
CM0                               00000000
CM1                               00000001
CM2                               00000002
CMCON                             0000009C
CMIE                              00000006
CMIF                              00000006
CONFIG_REQ                        1
CP@LB2                            000000D2
CPD_OFF                           00003FFF
CPD_ON                            00003EFF
CP_ALL                            00001FFF
CP_OFF                            00003FFF
CREN                              00000004
CSRC                              00000007
CSUM                              0000016A
CT@LB28                           00000144
CURRENT@PAGE                      00000000
CVR0                              00000000
CVR1                              00000001
CVR2                              00000002
CVR3                              00000003
CVRCON                            0000009D
CVREN                             00000007
CVROE                             00000006
CVRR                              00000005
DATAAVAILABLE                     _B#VR1,0
DATABUFFER                        0000005C
DATABUFFER#0                      0000005C
DATABUFFER#1                      0000005D
DATABUFFER#10                     00000066
DATABUFFER#100                    000000E4
DATABUFFER#101                    000000E5
DATABUFFER#102                    000000E6
DATABUFFER#103                    000000E7
DATABUFFER#104                    000000E8
DATABUFFER#105                    000000E9
DATABUFFER#106                    000000EA
DATABUFFER#107                    000000EB
DATABUFFER#108                    000000EC
DATABUFFER#109                    000000ED
DATABUFFER#11                     00000067
DATABUFFER#110                    000000EE
DATABUFFER#111                    000000EF
DATABUFFER#112                    00000110
DATABUFFER#113                    00000111
DATABUFFER#114                    00000112
DATABUFFER#115                    00000113
DATABUFFER#116                    00000114
DATABUFFER#117                    00000115
DATABUFFER#118                    00000116
DATABUFFER#119                    00000117
DATABUFFER#12                     00000068
DATABUFFER#120                    00000118
DATABUFFER#121                    00000119
DATABUFFER#122                    0000011A
DATABUFFER#123                    0000011B
DATABUFFER#124                    0000011C
DATABUFFER#125                    0000011D
DATABUFFER#126                    0000011E
DATABUFFER#127                    0000011F
DATABUFFER#128                    00000120
DATABUFFER#129                    00000121
DATABUFFER#13                     00000069
DATABUFFER#130                    00000122
DATABUFFER#131                    00000123
DATABUFFER#132                    00000124
DATABUFFER#133                    00000125
DATABUFFER#134                    00000126
DATABUFFER#135                    00000127
DATABUFFER#136                    00000128
DATABUFFER#137                    00000129
DATABUFFER#138                    0000012A
DATABUFFER#139                    0000012B
DATABUFFER#14                     0000006A
DATABUFFER#140                    0000012C
DATABUFFER#141                    0000012D
DATABUFFER#142                    0000012E
DATABUFFER#143                    0000012F
DATABUFFER#144                    00000130
DATABUFFER#145                    00000131
DATABUFFER#146                    00000132
DATABUFFER#147                    00000133
DATABUFFER#148                    00000134
DATABUFFER#149                    00000135
DATABUFFER#15                     0000006B
DATABUFFER#150                    00000136
DATABUFFER#151                    00000137
DATABUFFER#152                    00000138
DATABUFFER#153                    00000139
DATABUFFER#154                    0000013A
DATABUFFER#155                    0000013B
DATABUFFER#156                    0000013C
DATABUFFER#157                    0000013D
DATABUFFER#158                    0000013E
DATABUFFER#159                    0000013F
DATABUFFER#16                     0000006C
DATABUFFER#160                    00000140
DATABUFFER#161                    00000141
DATABUFFER#162                    00000142
DATABUFFER#163                    00000143
DATABUFFER#164                    00000144
DATABUFFER#165                    00000145
DATABUFFER#166                    00000146
DATABUFFER#167                    00000147
DATABUFFER#168                    00000148
DATABUFFER#169                    00000149
DATABUFFER#17                     0000006D
DATABUFFER#170                    0000014A
DATABUFFER#171                    0000014B
DATABUFFER#172                    0000014C
DATABUFFER#173                    0000014D
DATABUFFER#174                    0000014E
DATABUFFER#175                    0000014F
DATABUFFER#176                    00000150
DATABUFFER#177                    00000151
DATABUFFER#178                    00000152
DATABUFFER#179                    00000153
DATABUFFER#18                     0000006E
DATABUFFER#180                    00000154
DATABUFFER#181                    00000155
DATABUFFER#182                    00000156
DATABUFFER#183                    00000157
DATABUFFER#184                    00000158
DATABUFFER#185                    00000159
DATABUFFER#186                    0000015A
DATABUFFER#187                    0000015B
DATABUFFER#188                    0000015C
DATABUFFER#189                    0000015D
DATABUFFER#19                     0000006F
DATABUFFER#190                    0000015E
DATABUFFER#191                    0000015F
DATABUFFER#192                    00000160
DATABUFFER#193                    00000161
DATABUFFER#194                    00000162
DATABUFFER#195                    00000163
DATABUFFER#196                    00000164
DATABUFFER#197                    00000165
DATABUFFER#198                    00000166
DATABUFFER#199                    00000167
DATABUFFER#2                      0000005E
DATABUFFER#20                     00000070
DATABUFFER#21                     00000071
DATABUFFER#22                     00000072
DATABUFFER#23                     00000073
DATABUFFER#24                     00000074
DATABUFFER#25                     00000075
DATABUFFER#26                     00000076
DATABUFFER#27                     00000077
DATABUFFER#28                     00000078
DATABUFFER#29                     00000079
DATABUFFER#3                      0000005F
DATABUFFER#30                     0000007A
DATABUFFER#31                     0000007B
DATABUFFER#32                     000000A0
DATABUFFER#33                     000000A1
DATABUFFER#34                     000000A2
DATABUFFER#35                     000000A3
DATABUFFER#36                     000000A4
DATABUFFER#37                     000000A5
DATABUFFER#38                     000000A6
DATABUFFER#39                     000000A7
DATABUFFER#4                      00000060
DATABUFFER#40                     000000A8
DATABUFFER#41                     000000A9
DATABUFFER#42                     000000AA
DATABUFFER#43                     000000AB
DATABUFFER#44                     000000AC
DATABUFFER#45                     000000AD
DATABUFFER#46                     000000AE
DATABUFFER#47                     000000AF
DATABUFFER#48                     000000B0
DATABUFFER#49                     000000B1
DATABUFFER#5                      00000061
DATABUFFER#50                     000000B2
DATABUFFER#51                     000000B3
DATABUFFER#52                     000000B4
DATABUFFER#53                     000000B5
DATABUFFER#54                     000000B6
DATABUFFER#55                     000000B7
DATABUFFER#56                     000000B8
DATABUFFER#57                     000000B9
DATABUFFER#58                     000000BA
DATABUFFER#59                     000000BB
DATABUFFER#6                      00000062
DATABUFFER#60                     000000BC
DATABUFFER#61                     000000BD
DATABUFFER#62                     000000BE
DATABUFFER#63                     000000BF
DATABUFFER#64                     000000C0
DATABUFFER#65                     000000C1
DATABUFFER#66                     000000C2
DATABUFFER#67                     000000C3
DATABUFFER#68                     000000C4
DATABUFFER#69                     000000C5
DATABUFFER#7                      00000063
DATABUFFER#70                     000000C6
DATABUFFER#71                     000000C7
DATABUFFER#72                     000000C8
DATABUFFER#73                     000000C9
DATABUFFER#74                     000000CA
DATABUFFER#75                     000000CB
DATABUFFER#76                     000000CC
DATABUFFER#77                     000000CD
DATABUFFER#78                     000000CE
DATABUFFER#79                     000000CF
DATABUFFER#8                      00000064
DATABUFFER#80                     000000D0
DATABUFFER#81                     000000D1
DATABUFFER#82                     000000D2
DATABUFFER#83                     000000D3
DATABUFFER#84                     000000D4
DATABUFFER#85                     000000D5
DATABUFFER#86                     000000D6
DATABUFFER#87                     000000D7
DATABUFFER#88                     000000D8
DATABUFFER#89                     000000D9
DATABUFFER#9                      00000065
DATABUFFER#90                     000000DA
DATABUFFER#91                     000000DB
DATABUFFER#92                     000000DC
DATABUFFER#93                     000000DD
DATABUFFER#94                     000000DE
DATABUFFER#95                     000000DF
DATABUFFER#96                     000000E0
DATABUFFER#97                     000000E1
DATABUFFER#98                     000000E2
DATABUFFER#99                     000000E3
DATABUFFERINDEX                   0000005A
DATABUFFERLEN                     200
DATACNT                           00000038
DATAIN                            00000036
DATAOUT                           00000037
DATA_ADDRESS                      00000005
DATA_COUNT                        00000035
DC                                00000001
DEBUG_OFF                         00003FFF
DEBUG_ON                          000037FF
DEST@PAGE                         00000000
DLY@P                             0000000F
DONGU                             000001A4
DTMF                              00000039
DTMFCOUNT                         0000004A
DWORD_BIT                         
DWORD_BYTE                        
DWORD_DWORD                       
DWORD_WORD                        
DWORD_WREG                        
D_A                               SSPSTAT,5
EEADR                             0000010D
EEADRH                            0000010F
EECON1                            0000018C
EECON2                            0000018D
EEDAT                             0000010C
EEDATA                            0000010C
EEDATH                            0000010E
EEDATL                            0000010C
EEDATLH                           0000010E
EEIE                              00000004
EEIF                              00000004
EEPGD                             00000007
ERR_CSUM                          4
ERR_DEVAM                         1
ERR_KISA                          3
ERR_UZUN                          2
ERR_YOK                           0
EXTCLK                            00003FEF
EXTRC_CLKOUT                      00003FFF
EXTRC_IO                          00003FFE
F1_000033                         0000002F
F1_000054                         00000033
F1_000058                         00000035
F1_000059                         00000036
F1_000060                         00000039
F1_000061                         0000003A
F1_000062                         0000003B
F1_000071                         0000003C
F1_000072                         0000003D
F1_000073                         0000003E
F1_000098                         0000003F
F1_000108                         00000041
F1_000118                         00000043
F1_000129                         00000045
F1_000130                         00000048
F1_000131                         0000004B
F1_000132                         0000004E
F1_000133                         00000050
F1_000134                         00000052
F1_000136                         00000053
F1_000137                         00000055
F1_000140                         00000058
F1_000141                         00000059
F1_000150                         0000005A
F1_000153                         00000065
F1_000176                         00000076
F1_000178                         00000078
F1_000179                         00000078
F1_000181                         00000079
F1_000182                         0000007C
F1_000189                         0000007D
F1_000191                         00000085
F1_000192                         0000008D
F1_000193                         0000008E
F1_000195                         00000095
F1_000196                         00000097
F1_000197                         0000009A
F1_000200                         0000009A
F1_000202                         0000009B
F1_000203                         0000009D
F1_000204                         0000009E
F1_000205                         0000009E
F1_000206                         0000009E
F1_000211                         0000009E
F1_000212                         000000A3
F1_000213                         000000A8
F1_000214                         000000A9
F1_000217                         000000B0
F1_000218                         000000B1
F1_000219                         000000B3
F1_000220                         000000B7
F1_000221                         000000D2
F1_000222                         000000D7
F1_000223                         000000D7
F1_000224                         000000DB
F1_000225                         000000DB
F1_000229                         000000DC
F1_000230                         000000DD
F1_000231                         0000010E
F1_000232                         00000113
F1_000233                         00000115
F1_000234                         00000118
F1_000235                         00000118
F1_000236                         00000119
F1_000237                         00000119
F1_000238                         0000011D
F1_000239                         00000123
F1_000240                         00000128
F1_000241                         00000129
F1_000243                         0000012E
F1_000245                         00000130
F1_000246                         0000013A
F1_000247                         00000145
F1_000248                         0000014C
F1_000249                         0000015D
F1_000250                         00000170
F1_000251                         00000170
F1_000252                         00000172
F1_000253                         00000172
F1_000254                         00000172
F1_000255                         00000179
F1_000256                         00000180
F1_000257                         00000180
F1_000258                         00000185
F1_000259                         00000186
F1_000260                         00000188
F1_000261                         00000188
F1_000266                         00000189
F1_000267                         0000018A
F1_000274                         00000194
F1_000277                         00000195
F1_000278                         00000197
F1_000296                         00000198
F1_000300                         00000199
F1_000306                         0000019B
F1_000310                         0000019C
F1_000311                         0000019F
F1_000312                         000001A3
F1_000316                         000001A4
F1_000321                         000001A6
F1_EOF                            000001A8
F1_SOF                            0000002F
F2_EOF                            0000002F
F2_SOF                            0000002F
F@CALL                            
F@JUMP                            
FCMEN_OFF                         00003FFE
FCMEN_ON                          00003FFF
FERR                              00000002
FIND@PAGE                         
FR@LB26                           00000132
FREE                              00000004
FSR                               00000004
FSRSAVE                           0000007C
GEN3H                             00000020
GEN4                              00000021
GEN4H                             00000022
GIE                               INTCON,7
GO                                00000002
GO_DONE                           ADCON0,2
HS_OSC                            00003FEE
I2CADDR                           50
I2CRD                             00000199
I2CSLAVE                          00000189
I2CWR                             00000195
I2C_DATA                          00000005
I2C_READ                          00000002
I2C_START                         00000003
I2C_STOP                          00000004
I@NT                              0000002A
IESO_OFF                          00003FFD
IESO_ON                           00003FFF
INDF                              00000000
INT0IE                            INTCON,4
INT0IF                            INTCON,1
INTCON                            0000000B
INTE                              00000004
INTEDG                            OPTION_REG,6
INTF                              00000001
INTRC_CLKOUT                      00003FFD
INTRC_IO                          00003FFC
IOFS                              00000002
IRCF0                             00000004
IRCF1                             00000005
IRCF2                             00000006
IRP                               00000007
JUMP                              
KOMUT                             0000003A
KOMUT#0                           0000003A
KOMUT#1                           0000003B
KOMUT#2                           0000003C
KOMUT#3                           0000003D
KOMUT#4                           0000003E
KOMUT#5                           0000003F
KOMUT#6                           00000040
KOMUT#7                           00000041
KOMUTLEN                          6
LABEL_WORD                        
LASTKOMUT                         00000042
LASTKOMUT#0                       00000042
LASTKOMUT#1                       00000043
LASTKOMUT#2                       00000044
LASTKOMUT#3                       00000045
LASTKOMUT#4                       00000046
LASTKOMUT#5                       00000047
LASTKOMUT#6                       00000048
LASTKOMUT#7                       00000049
LAST_ERR                          00000034
LCD#TYPE                          0
LED                               PORTA,1
LP_OSC                            00003FEC
LVP_OFF                           00003F7F
LVP_ON                            00003FFF
M@LB2                             000000E4
MCLR_OFF                          00003FDF
MCLR_ON                           00003FFF
MYCOUNT                           00000169
MYINTERRUPT                       00000078
NOT_A                             00000005
NOT_ADDRESS                       00000005
NOT_BO                            00000000
NOT_BOR                           00000000
NOT_DONE                          ADCON0,2
NOT_PD                            00000003
NOT_POR                           00000001
NOT_RBPU                          OPTION_REG,7
NOT_RC8                           00000006
NOT_T1SYNC                        00000002
NOT_TO                            00000004
NOT_TX8                           00000006
NOT_W                             00000002
NOT_WRITE                         00000002
NUM16_SFR                         
NUM_BIT                           
NUM_BYTE                          
NUM_DWORD                         
NUM_FSR                           
NUM_SFR                           
NUM_WORD                          
NUM_WREG                          
NX@LB27                           0000014C
OERR                              00000001
OPTION_REG                        00000081
OSCCON                            0000008F
OSCTUNE                           00000090
OSFIE                             00000007
OSFIF                             00000007
OSTS                              00000003
PB@LB2                            00000066
PB@LB31                           0000015E
PB@LB41                           000001A6
PB@LB42                           000001A8
PBP#VAR0                          00000023
PBP#VAR0H                         00000024
PBP#VAR1                          00000025
PBP#VAR1H                         00000026
PBP#VAR2                          00000027
PCL                               00000002
PCLATH                            0000000A
PCON                              0000008E
PDESTINATION@PAGE                 00000000
PEIE                              INTCON,6
PIE1                              0000008C
PIE2                              0000008D
PIR1                              0000000C
PIR2                              0000000D
PORTA                             00000005
PORTB                             00000006
PP0                               00000028
PP0H                              00000029
PP1                               0000002A
PP1H                              0000002B
PP3                               0000002C
PP3H                              0000002D
PP6                               0000002E
PP6H                              0000002F
PP7                               00000030
PP7H                              00000031
PP8                               00000032
PP8H                              00000033
PP_BF                             00000000
PP_CREN                           00000004
PP_EEPGD                          00000007
PP_GO_DONE                        00000002
PP_OERR                           00000001
PP_RCIF                           00000005
PP_RD                             00000000
PP_R_W                            00000002
PP_T2CKPS0                        00000000
PP_T2CKPS1                        00000001
PP_TMR2ON                         00000002
PP_TXIF                           00000004
PP_WR                             00000001
PP_WREN                           00000002
PP_WRERR                          00000003
PR2                               00000092
PROTON#CODE#START                 00000000
PROTON#MAIN#START                 0000002E
PS0                               OPTION_REG,0
PS1                               OPTION_REG,1
PS2                               OPTION_REG,2
PSA                               OPTION_REG,3
PSAVE                             0000007D
PWRTE_OFF                         00003FFF
PWRTE_ON                          00003FF7
R@B                               
RAM_BANK                          00000000
RAM_BANKS                         4
RB0INT                            000000DC
RBIE                              INTCON,3
RBIF                              INTCON,0
RC8_9                             00000006
RC9                               00000006
RCD8                              00000000
RCIE                              PIE1,5
RCIF                              PIR1,5
RCREG                             0000001A
RCSTA                             00000018
RD                                00000000
READ_WRITE                        00000002
RP0                               00000005
RP1                               00000006
RX9                               00000006
RX9D                              00000000
R_W                               SSPSTAT,2
S@B                               
SAYAC                             0000016B
SCS0                              00000000
SCS1                              00000001
SET@PAGE                          
SMP                               SSPSTAT,7
SPBRG                             00000099
SPEN                              00000007
SREN                              00000005
SSAVE                             0000007E
SSPADD                            00000093
SSPBUF                            00000013
SSPCON                            00000014
SSPEN                             SSPCON,5
SSPIE                             PIE1,3
SSPIF                             PIR1,3
SSPM0                             00000000
SSPM1                             00000001
SSPM2                             00000002
SSPM3                             00000003
SSPOV                             SSPCON,6
SSPSTAT                           00000094
STATE1                            9
STATE2                            41
STATE3                            12
STATE4                            44
STATE5                            40
STATUS                            00000003
SWDTE                             00000000
SWDTEN                            00000000
SYNC                              00000004
T0CS                              00000005
T0SE                              00000004
T1CKPS0                           00000004
T1CKPS1                           00000005
T1CON                             00000010
T1INSYNC                          00000002
T1OSCEN                           00000003
T1RUN                             00000006
T2CKPS0                           00000000
T2CKPS1                           00000001
T2CON                             00000012
TMR0                              00000001
TMR0IE                            INTCON,5
TMR0IF                            INTCON,2
TMR1CS                            00000001
TMR1H                             0000000F
TMR1IE                            PIE1,0
TMR1IF                            PIR1,0
TMR1L                             0000000E
TMR1LH                            0000000F
TMR1ON                            00000000
TMR2                              00000011
TMR2IE                            PIE1,1
TMR2IF                            PIR1,1
TMR2ON                            00000002
TOUTPS0                           00000003
TOUTPS1                           00000004
TOUTPS2                           00000005
TOUTPS3                           00000006
TRISA                             00000085
TRISB                             00000086
TRMT                              00000001
TUN0                              00000000
TUN1                              00000001
TUN2                              00000002
TUN3                              00000003
TUN4                              00000004
TUN5                              00000005
TX8_9                             00000006
TX9                               00000006
TX9D                              00000000
TXD8                              00000000
TXEN                              00000005
TXIE                              PIE1,4
TXIF                              PIR1,4
TXREG                             00000019
TXSTA                             00000098
UA                                SSPSTAT,1
VCFG0                             00000004
VCFG1                             00000005
WCOL                              SSPCON,7
WCOLCOUNTER                       00000168
WDTCON                            00000105
WDTPS0                            00000001
WDTPS1                            00000002
WDTPS2                            00000003
WDTPS3                            00000004
WDT_OFF                           00003FFB
WDT_ON                            00003FFF
WORD_BIT                          
WORD_BYTE                         
WORD_DWORD                        
WORD_SDWORD                       
WORD_WORD                         
WORD_WREG                         
WR                                00000001
WREG_BIT                          
WREG_BYTE                         
WREG_DWORD                        
WREG_SDWORD                       
WREG_SWORD                        
WREG_WORD                         
WREN                              00000002
WRERR                             00000003
WRT_PROTECT_2048                  00003BFF
WRT_PROTECT_256                   00003DFF
WRT_PROTECT_ALL                   000039FF
WRT_PROTECT_OFF                   00003FFF
WSAVE                             0000007F
XTAL                              20
XT_OSC                            00003FED
Z                                 00000002
_ADC                              7
_ADC_RES                          10
_B#VR1                            0000005B
_BANKS                            3
_CONFIG1                          00002007
_CONFIG2                          00002008
_CORE                             14
_CWRITE_BLOCK                     4
_EEPROM                           256
_FLASH                            1
_I2C_SCL_PIN                      00000004
_I2C_SCL_PORT                     00000086
_I2C_SDA_PIN                      00000001
_I2C_SDA_PORT                     00000086
_MAXMEM                           4096
_MAXRAM                           368
_P                                SSPSTAT,4
_PAGES                            2
_RAM_END                          0X0170
_S                                SSPSTAT,3
_SYSTEM_VARIABLE_COUNT            20
_USART                            1
_USB                              0
__16F88                           1
__DELAY_MS_                       0000000D
__DELAY_MS_W_                     0000000E
__DELAY_US_                       0000001A
__DELAY_US_W_                     0000001B
__EOF                             000001AA
__INTERRUPTS_ENABLED              1
__XTAL                            20


MEMORY USAGE MAP ('X' = USED,  '-' = UNUSED)

0000 : XXXXXXXXXXXXXXXX XXXXXXXXXXXXXXXX XXXXXXXXXXXXXXXX XXXXXXXXXXXXXXXX
0040 : XXXXXXXXXXXXXXXX XXXXXXXXXXXXXXXX XXXXXXXXXXXXXXXX XXXXXXXXXXXXXXXX
0080 : XXXXXXXXXXXXXXXX XXXXXXXXXXXXXXXX XXXXXXXXXXXXXXXX XXXXXXXXXXXXXXXX
00C0 : XXXXXXXXXXXXXXXX XXXXXXXXXXXXXXXX XXXXXXXXXXXXXXXX XXXXXXXXXXXXXXXX
0100 : XXXXXXXXXXXXXXXX XXXXXXXXXXXXXXXX XXXXXXXXXXXXXXXX XXXXXXXXXXXXXXXX
0140 : XXXXXXXXXXXXXXXX XXXXXXXXXXXXXXXX XXXXXXXXXXXXXXXX XXXXXXXXXXXXXXXX
0180 : XXXXXXXXXXXXXXXX XXXXXXXXXXXXXXXX XXXXXXXXXX------ ----------------
2000 : -------X-------- ---------------- ---------------- ----------------

ALL OTHER MEMORY BLOCKS UNUSED.

PROGRAM MEMORY WORDS USED:   426
PROGRAM MEMORY WORDS FREE:  3670


ERRORS   :     0
WARNINGS :     0 REPORTED,   181 SUPPRESSED
MESSAGES :     1 REPORTED,    31 SUPPRESSED


