MPASM  5.45                               A.S   1-4-2014  9:46:32         PAGE  1


LOC  OBJECT CODE     LINE SOURCE TEXT
  VALUE


                      00002         list
                      00003 ;{
                      00004 ;FILE F1 = C:\PROJELER\TRANSPONDER_MASTER_V2\TRANSPONDER_MASTER_V2.BAS
                      00005 ;FILE F2 = C:\PROJELER\TRANSPONDER_MASTER_V2\TRANSPONDER_MASTER_V2.PRP
                      00006 ;}
                      00007 ;[Variable Listing]
                      00008 ;TRANSPONDER_MODE,001B,DT_BYTE,1
                      00009 ;TR_MD,001C,DT_BYTE,1
                      00010 ;FREK1,001D,DT_WORD,2
                      00011 ;FREK2,001F,DT_WORD,2
                      00012 ;STP,0021,DT_WORD,2
                      00013 ;REF,0023,DT_WORD,2
                      00014 ;A,0025,DT_WORD,2
                      00015 ;N,0027,DT_WORD,2
                      00016 ;R,0029,DT_WORD,2
                      00017 ;X,002B,DT_WORD,2
                      00018 ;PRE,002D,DT_BYTE,1
                      00019 ;PRE2,002E,DT_BYTE,1
                      00020 ;DataOut,002F,DT_DWORD,4
                      00021 ;sayac,0033,DT_BYTE,1
                      00022 ;SaniyeBekle,0034,DT_BYTE,1
                      00023 ;TPS_Akim,0035,DT_WORD,2
                      00024 ;Pwm_val,0037,DT_BYTE,1
                      00025 ;Cikis_Gucu,0038,DT_WORD,2
                      00026 ;uS,003A,DT_WORD,2
                      00027 ;mS,003C,DT_WORD,2
                      00028 ;S,003E,DT_WORD,2
                      00029 ;mn,0040,DT_BYTE,1
                      00030 ;hr,0041,DT_BYTE,1
                      00031 ;dy,0042,DT_BYTE,1
                      00032 ;DataIn,0043,DT_BYTE,1
                      00033 ;LastData,0044,DT_BYTE,1
                      00034 ;STATE_INFO,0045,DT_BYTE,1
                      00035 ;RESPONSE,0046,DT_BYTE,1
                      00036 ;DURUM,0047,DT_BYTE,1
                      00037 ;DutyCycle,0049,DT_BYTE,1
                      00038 ;Reset_Count,004A,DT_WORD,2
                      00039 ;EPS_ADCVal,004C,DT_WORD,64
                      00040 ;EPS_ADCValByte,008C,DT_BYTE,64
                      00041 ;BAT_ADCVal,00CC,DT_WORD,32
                      00042 ;dummy,00EC,DT_BYTE,1
                      00043 ;Versiyon,00ED,DT_BYTE,1
                      00044 ;EPSstatus,00EE,DT_BYTE,1
                      00045 ;BATVersiyon,00EF,DT_BYTE,1
                      00046 ;BATstatus1,00F0,DT_BYTE,1
                      00047 ;BATstatus2,00F1,DT_BYTE,1
                      00048 ;DTMFstat,00F2,DT_BYTE,1
                      00049 ;DTMFbatt,00F3,DT_BYTE,2
                      00050 ;DTMF,00F5,DT_BYTE,12
                      00051 ;dongusay,0101,DT_BYTE,1
                      00052 ;ADCsay,0102,DT_BYTE,1
                      00053 ;_High__Context_Store,0103,DT_BYTE,1
MPASM  5.45                               A.S   1-4-2014  9:46:32         PAGE  2


LOC  OBJECT CODE     LINE SOURCE TEXT
  VALUE

                      00054 ;AGC8317in,0F80.1,DT_BIT
                      00055 ;ACS714_5V,0F80.2,DT_BIT
                      00056 ;pllLD,0F80.3,DT_BIT
                      00057 ;TPS2421en,0F80.4,DT_BIT
                      00058 ;PWRled,0F80.5,DT_BIT
                      00059 ;mySCL2,0F81.1,DT_BIT
                      00060 ;mySDA2,0F81.2,DT_BIT
                      00061 ;pllCLK,0F81.3,DT_BIT
                      00062 ;pllDATA,0F81.4,DT_BIT
                      00063 ;pllLE,0F81.5,DT_BIT
                      00064 ;pllPSRF,0F81.6,DT_BIT
                      00065 ;pllPSIF,0F81.7,DT_BIT
                      00066 ;LD29300enable,0F82.0,DT_BIT
                      00067 ;TPS3823WDI,0F82.1,DT_BIT
                      00068 ;AD8317AGCset,0F82.2,DT_BIT
                      00069 ;mySCL1,0F82.3,DT_BIT
                      00070 ;mySDA1,0F82.4,DT_BIT
                      00071 ;AD8317final,0F82.7,DT_BIT
                      00072 ;GIE,0FF2.7,DT_BIT
                      00073 ;Timer1,0FCE,DT_WORD,2
                      00074 ;Timer1H,0FCF,DT_BYTE,1
                      00075 ;TMR1_Enable,0F9D.0,DT_BIT
                      00076 ;TMR1_Overflow,0F9E.0,DT_BIT
                      00077 ;TMR1_On,0FCD.0,DT_BIT
                      00078 ;SSPIF,0F9E.3,DT_BIT
                      00079 ;SSPIP,0F9F.3,DT_BIT
                      00080 ;SSPIE,0F9D.3,DT_BIT
                      00081 ;BF,0FC7.0,DT_BIT
                      00082 ;R_W,0FC7.2,DT_BIT
                      00083 ;D_A,0FC7.5,DT_BIT
                      00084 ;CKP,0FC6.4,DT_BIT
                      00085 ;SSPEN,0FC6.5,DT_BIT
                      00086 ;SSPOV,0FC6.6,DT_BIT
                      00087 ;WCOL,0FC6.7,DT_BIT
                      00088 ;SMP,0FC7.7,DT_BIT
                      00089 ;SEN,0FC5.0,DT_BIT
                      00090 ;AHEN,0FCB.1,DT_BIT
                      00091 ;PEIE,0FF2.6,DT_BIT
                      00092 ;pllyaz_latch,0048.0,DT_BIT
                      00093 ;[End Listing]
                      00094 ;[TOTAL VARS] 253

                      00096 #define CONFIG_REQ 1
MESSAGE[308]: WARNING LEVEL SUPERSEDED BY COMMAND LINE VALUE. (2)
                      00097  LIST  P = 18F24K22, F = INHX32, W = 2, X = ON, R = DEC, MM = ON, N = 0, C = 255, T=ON
  00000F38            00098 ANSELA equ 0X0F38
  00000F39            00099 ANSELB equ 0X0F39
  00000F3A            00100 ANSELC equ 0X0F3A
  00000F3D            00101 PMD2 equ 0X0F3D
  00000F3E            00102 PMD1 equ 0X0F3E
  00000F3F            00103 PMD0 equ 0X0F3F
  00000F40            00104 DACCON1 equ 0X0F40
  00000F40            00105 VREFCON2 equ 0X0F40
  00000F41            00106 DACCON0 equ 0X0F41
  00000F41            00107 VREFCON1 equ 0X0F41
  00000F42            00108 FVRCON equ 0X0F42
  00000F42            00109 VREFCON0 equ 0X0F42
  00000F43            00110 CTMUICON equ 0X0F43
  00000F43            00111 CTMUICONH equ 0X0F43
  00000F44            00112 CTMUCON1 equ 0X0F44
  00000F44            00113 CTMUCONL equ 0X0F44
  00000F45            00114 CTMUCON0 equ 0X0F45
  00000F45            00115 CTMUCONH equ 0X0F45
  00000F45            00116 CTMUCONLH equ 0X0F45
  00000F46            00117 SRCON1 equ 0X0F46
  00000F47            00118 SRCON0 equ 0X0F47
  00000F48            00119 CCPTMRS1 equ 0X0F48
  00000F49            00120 CCPTMRS0 equ 0X0F49
  00000F4A            00121 T6CON equ 0X0F4A
  00000F4B            00122 PR6 equ 0X0F4B
  00000F4C            00123 TMR6 equ 0X0F4C
  00000F4D            00124 T5GCON equ 0X0F4D
  00000F4E            00125 T5CON equ 0X0F4E
  00000F4F            00126 TMR5 equ 0X0F4F
  00000F4F            00127 TMR5L equ 0X0F4F
  00000F50            00128 TMR5LH equ 0X0F50
  00000F50            00129 TMR5H equ 0X0F50
  00000F51            00130 T4CON equ 0X0F51
  00000F52            00131 PR4 equ 0X0F52
  00000F53            00132 TMR4 equ 0X0F53
  00000F54            00133 CCP5CON equ 0X0F54
  00000F55            00134 CCPR5 equ 0X0F55
  00000F55            00135 CCPR5L equ 0X0F55
  00000F56            00136 CCPR5LH equ 0X0F56
  00000F56            00137 CCPR5H equ 0X0F56
  00000F57            00138 CCP4CON equ 0X0F57
  00000F58            00139 CCPR4 equ 0X0F58
  00000F58            00140 CCPR4L equ 0X0F58
  00000F59            00141 CCPR4LH equ 0X0F59
  00000F59            00142 CCPR4H equ 0X0F59
  00000F5A            00143 PSTR3CON equ 0X0F5A
  00000F5B            00144 CCP3AS equ 0X0F5B
  00000F5B            00145 ECCP3AS equ 0X0F5B
  00000F5C            00146 PWM3CON equ 0X0F5C
  00000F5D            00147 CCP3CON equ 0X0F5D
  00000F5E            00148 CCPR3 equ 0X0F5E
  00000F5E            00149 CCPR3L equ 0X0F5E
  00000F5F            00150 CCPR3LH equ 0X0F5F
  00000F5F            00151 CCPR3H equ 0X0F5F
  00000F60            00152 SLRCON equ 0X0F60
  00000F61            00153 WPUB equ 0X0F61
  00000F62            00154 IOCB equ 0X0F62
  00000F63            00155 PSTR2CON equ 0X0F63
  00000F64            00156 CCP2AS equ 0X0F64
  00000F64            00157 ECCP2AS equ 0X0F64
  00000F65            00158 PWM2CON equ 0X0F65
  00000F66            00159 CCP2CON equ 0X0F66
  00000F67            00160 CCPR2 equ 0X0F67
  00000F67            00161 CCPR2L equ 0X0F67
  00000F68            00162 CCPR2LH equ 0X0F68
  00000F68            00163 CCPR2H equ 0X0F68
  00000F69            00164 SSP2CON3 equ 0X0F69
  00000F6A            00165 SSP2MSK equ 0X0F6A
  00000F6B            00166 SSP2CON2 equ 0X0F6B
  00000F6C            00167 SSP2CON1 equ 0X0F6C
  00000F6D            00168 SSP2STAT equ 0X0F6D
  00000F6E            00169 SSP2ADD equ 0X0F6E
  00000F6F            00170 SSP2BUF equ 0X0F6F
  00000F70            00171 BAUD2CON equ 0X0F70
  00000F70            00172 BAUDCON2 equ 0X0F70
  00000F71            00173 RC2STA equ 0X0F71
  00000F71            00174 RCSTA2 equ 0X0F71
  00000F72            00175 TX2STA equ 0X0F72
  00000F72            00176 TXSTA2 equ 0X0F72
  00000F73            00177 TX2REG equ 0X0F73
  00000F73            00178 TXREG2 equ 0X0F73
  00000F74            00179 RC2REG equ 0X0F74
  00000F74            00180 RCREG2 equ 0X0F74
  00000F75            00181 SP2BRG equ 0X0F75
  00000F75            00182 SPBRG2 equ 0X0F75
  00000F76            00183 SP2BRGH equ 0X0F76
  00000F76            00184 SPBRG2H equ 0X0F76
  00000F76            00185 SPBRGH2 equ 0X0F76
  00000F77            00186 CM12CON equ 0X0F77
  00000F77            00187 CM2CON1 equ 0X0F77
  00000F78            00188 CM2CON equ 0X0F78
  00000F78            00189 CM2CON0 equ 0X0F78
  00000F79            00190 CM1CON equ 0X0F79
  00000F79            00191 CM1CON0 equ 0X0F79
  00000F7A            00192 PIE4 equ 0X0F7A
  00000F7B            00193 PIR4 equ 0X0F7B
  00000F7C            00194 IPR4 equ 0X0F7C
  00000F7D            00195 PIE5 equ 0X0F7D
  00000F7E            00196 PIR5 equ 0X0F7E
  00000F7F            00197 IPR5 equ 0X0F7F
  00000F80            00198 PORTA equ 0X0F80
  00000F81            00199 PORTB equ 0X0F81
  00000F82            00200 PORTC equ 0X0F82
  00000F84            00201 PORTE equ 0X0F84
  00000F89            00202 LATA equ 0X0F89
  00000F8A            00203 LATB equ 0X0F8A
  00000F8B            00204 LATC equ 0X0F8B
  00000F92            00205 DDRA equ 0X0F92
  00000F92            00206 TRISA equ 0X0F92
  00000F93            00207 DDRB equ 0X0F93
  00000F93            00208 TRISB equ 0X0F93
  00000F94            00209 DDRC equ 0X0F94
  00000F94            00210 TRISC equ 0X0F94
  00000F96            00211 TRISE equ 0X0F96
  00000F9B            00212 OSCTUNE equ 0X0F9B
  00000F9C            00213 HLVDCON equ 0X0F9C
  00000F9C            00214 LVDCON equ 0X0F9C
  00000F9D            00215 PIE1 equ 0X0F9D
  00000F9E            00216 PIR1 equ 0X0F9E
  00000F9F            00217 IPR1 equ 0X0F9F
  00000FA0            00218 PIE2 equ 0X0FA0
  00000FA1            00219 PIR2 equ 0X0FA1
  00000FA2            00220 IPR2 equ 0X0FA2
  00000FA3            00221 PIE3 equ 0X0FA3
  00000FA4            00222 PIR3 equ 0X0FA4
  00000FA5            00223 IPR3 equ 0X0FA5
  00000FA6            00224 EECON1 equ 0X0FA6
  00000FA7            00225 EECON2 equ 0X0FA7
  00000FA8            00226 EEDATL equ 0X0FA8
  00000FA8            00227 EEDATA equ 0X0FA8
  00000FA9            00228 EEADR equ 0X0FA9
  00000FAA            00229 EEADRH equ 0X0FAA
  00000FAB            00230 RC1STA equ 0X0FAB
  00000FAB            00231 RCSTA equ 0X0FAB
  00000FAB            00232 RCSTA1 equ 0X0FAB
  00000FAC            00233 TX1STA equ 0X0FAC
  00000FAC            00234 TXSTA equ 0X0FAC
  00000FAC            00235 TXSTA1 equ 0X0FAC
  00000FAD            00236 TX1REG equ 0X0FAD
  00000FAD            00237 TXREG equ 0X0FAD
  00000FAD            00238 TXREG1 equ 0X0FAD
  00000FAE            00239 RC1REG equ 0X0FAE
  00000FAE            00240 RCREG equ 0X0FAE
  00000FAE            00241 RCREG1 equ 0X0FAE
  00000FAF            00242 SP1BRG equ 0X0FAF
  00000FAF            00243 SPBRG equ 0X0FAF
  00000FAF            00244 SPBRG1 equ 0X0FAF
  00000FB0            00245 SP1BRGH equ 0X0FB0
  00000FB0            00246 SPBRGH equ 0X0FB0
  00000FB0            00247 SPBRG1H equ 0X0FB0
  00000FB0            00248 SPBRGH1 equ 0X0FB0
  00000FB1            00249 T3CON equ 0X0FB1
  00000FB2            00250 TMR3L equ 0X0FB2
  00000FB3            00251 TMR3LH equ 0X0FB3
  00000FB3            00252 TMR3H equ 0X0FB3
  00000FB4            00253 T3GCON equ 0X0FB4
  00000FB6            00254 ECCP1AS equ 0X0FB6
  00000FB6            00255 ECCPAS equ 0X0FB6
  00000FB7            00256 PWM1CON equ 0X0FB7
  00000FB7            00257 PWMCON equ 0X0FB7
  00000FB8            00258 BAUD1CON equ 0X0FB8
  00000FB8            00259 BAUDCON equ 0X0FB8
  00000FB8            00260 BAUDCON1 equ 0X0FB8
  00000FB8            00261 BAUDCTL equ 0X0FB8
  00000FB9            00262 PSTR1CON equ 0X0FB9
  00000FB9            00263 PSTRCON equ 0X0FB9
  00000FBA            00264 T2CON equ 0X0FBA
  00000FBB            00265 PR2 equ 0X0FBB
  00000FBC            00266 TMR2 equ 0X0FBC
  00000FBD            00267 CCP1CON equ 0X0FBD
  00000FBE            00268 CCPR1 equ 0X0FBE
  00000FBE            00269 CCPR1L equ 0X0FBE
  00000FBF            00270 CCPR1LH equ 0X0FBF
  00000FBF            00271 CCPR1H equ 0X0FBF
  00000FC0            00272 ADCON2 equ 0X0FC0
  00000FC1            00273 ADCON1 equ 0X0FC1
  00000FC2            00274 ADCON0 equ 0X0FC2
  00000FC3            00275 ADRES equ 0X0FC3
  00000FC3            00276 ADRESL equ 0X0FC3
  00000FC4            00277 ADRESLH equ 0X0FC4
  00000FC4            00278 ADRESH equ 0X0FC4
  00000FC5            00279 SSP1CON2 equ 0X0FC5
  00000FC5            00280 SSPCON2 equ 0X0FC5
  00000FC6            00281 SSP1CON1 equ 0X0FC6
  00000FC6            00282 SSPCON1 equ 0X0FC6
  00000FC7            00283 SSP1STAT equ 0X0FC7
  00000FC7            00284 SSPSTAT equ 0X0FC7
  00000FC8            00285 SSP1ADD equ 0X0FC8
  00000FC8            00286 SSPADD equ 0X0FC8
  00000FC9            00287 SSP1BUF equ 0X0FC9
  00000FC9            00288 SSPBUF equ 0X0FC9
  00000FCA            00289 SSP1MSK equ 0X0FCA
  00000FCA            00290 SSPMSK equ 0X0FCA
  00000FCB            00291 SSP1CON3 equ 0X0FCB
  00000FCB            00292 SSPCON3 equ 0X0FCB
  00000FCC            00293 T1GCON equ 0X0FCC
  00000FCD            00294 T1CON equ 0X0FCD
  00000FCE            00295 TMR1L equ 0X0FCE
  00000FCF            00296 TMR1LH equ 0X0FCF
  00000FCF            00297 TMR1H equ 0X0FCF
  00000FD0            00298 RCON equ 0X0FD0
  00000FD1            00299 WDTCON equ 0X0FD1
  00000FD2            00300 OSCCON2 equ 0X0FD2
  00000FD3            00301 OSCCON equ 0X0FD3
  00000FD5            00302 T0CON equ 0X0FD5
  00000FD6            00303 TMR0L equ 0X0FD6
  00000FD7            00304 TMR0LH equ 0X0FD7
  00000FD7            00305 TMR0H equ 0X0FD7
  00000FD8            00306 STATUS equ 0X0FD8
  00000FD9            00307 FSR2L equ 0X0FD9
  00000FDA            00308 FSR2LH equ 0X0FDA
  00000FDA            00309 FSR2H equ 0X0FDA
  00000FDB            00310 PLUSW2 equ 0X0FDB
  00000FDC            00311 PREINC2 equ 0X0FDC
  00000FDD            00312 POSTDEC2 equ 0X0FDD
  00000FDE            00313 POSTINC2 equ 0X0FDE
  00000FDF            00314 INDF2 equ 0X0FDF
  00000FE0            00315 BSR equ 0X0FE0
  00000FE1            00316 FSR1L equ 0X0FE1
  00000FE2            00317 FSR1LH equ 0X0FE2
  00000FE2            00318 FSR1H equ 0X0FE2
  00000FE3            00319 PLUSW1 equ 0X0FE3
  00000FE4            00320 PREINC1 equ 0X0FE4
  00000FE5            00321 POSTDEC1 equ 0X0FE5
  00000FE6            00322 POSTINC1 equ 0X0FE6
  00000FE7            00323 INDF1 equ 0X0FE7
  00000FE8            00324 WREG equ 0X0FE8
  00000FE9            00325 FSR0L equ 0X0FE9
  00000FEA            00326 FSR0LH equ 0X0FEA
  00000FEA            00327 FSR0H equ 0X0FEA
  00000FEB            00328 PLUSW0 equ 0X0FEB
  00000FEC            00329 PREINC0 equ 0X0FEC
  00000FED            00330 POSTDEC0 equ 0X0FED
  00000FEE            00331 POSTINC0 equ 0X0FEE
  00000FEF            00332 INDF0 equ 0X0FEF
  00000FF0            00333 INTCON3 equ 0X0FF0
  00000FF1            00334 INTCON2 equ 0X0FF1
  00000FF2            00335 INTCON equ 0X0FF2
  00000FF3            00336 PRODL equ 0X0FF3
  00000FF4            00337 PRODLH equ 0X0FF4
  00000FF4            00338 PRODH equ 0X0FF4
  00000FF5            00339 TABLAT equ 0X0FF5
  00000FF6            00340 TBLPTRL equ 0X0FF6
  00000FF7            00341 TBLPTRLH equ 0X0FF7
  00000FF7            00342 TBLPTRH equ 0X0FF7
  00000FF8            00343 TBLPTRLHH equ 0X0FF8
  00000FE8            00344 TBLPTRLHHH equ 0X0FE8
  00000FF8            00345 TBLPTRU equ 0X0FF8
  00000FF9            00346 PC equ 0X0FF9
  00000FF9            00347 PCL equ 0X0FF9
  00000FFA            00348 PCLATH equ 0X0FFA
  00000FFB            00349 PCLATU equ 0X0FFB
  00000FFC            00350 STKPTR equ 0X0FFC
  00000FFD            00351 TOSL equ 0X0FFD
  00000FFE            00352 TOSLH equ 0X0FFE
  00000FFE            00353 TOSH equ 0X0FFE
  00000FFF            00354 TOSU equ 0X0FFF
  00000F94            00355 _I2C_SDA_PORT=TRISC
  00000004            00356 _I2C_SDA_PIN=4
  00000F94            00357 _I2C_SCL_PORT=TRISC
  00000003            00358 _I2C_SCL_PIN=3
  00000000            00359 ANSA0=0
  00000001            00360 ANSA1=1
  00000002            00361 ANSA2=2
  00000003            00362 ANSA3=3
  00000005            00363 ANSA5=5
  00000000            00364 ANSB0=0
  00000001            00365 ANSB1=1
  00000002            00366 ANSB2=2
  00000003            00367 ANSB3=3
  00000004            00368 ANSB4=4
  00000005            00369 ANSB5=5
  00000002            00370 ANSC2=2
  00000003            00371 ANSC3=3
  00000004            00372 ANSC4=4
  00000005            00373 ANSC5=5
  00000006            00374 ANSC6=6
  00000007            00375 ANSC7=7
  00000000            00376 ADCMD=0
  00000001            00377 CMP1MD=1
  00000002            00378 CMP2MD=2
  00000003            00379 CTMUMD=3
  00000000            00380 CCP1MD=0
  00000001            00381 CCP2MD=1
  00000002            00382 CCP3MD=2
  00000003            00383 CCP4MD=3
  00000004            00384 CCP5MD=4
  00000006            00385 MSSP1MD=6
  00000007            00386 MSSP2MD=7
  00000000            00387 TMR1MD=0
  00000001            00388 TMR2MD=1
  00000002            00389 TMR3MD=2
  00000003            00390 TMR4MD=3
  00000004            00391 TMR5MD=4
  00000005            00392 TMR6MD=5
  00000006            00393 UART1MD=6
  00000007            00394 UART2MD=7
  00000000            00395 DACR0=0
  00000001            00396 DACR1=1
  00000002            00397 DACR2=2
  00000003            00398 DACR3=3
  00000004            00399 DACR4=4
  00000000            00400 DACR0=0
  00000001            00401 DACR1=1
  00000002            00402 DACR2=2
  00000003            00403 DACR3=3
  00000004            00404 DACR4=4
  00000000            00405 DACNSS=0
  00000005            00406 DACOE=5
  00000006            00407 DACLPS=6
  00000007            00408 DACEN=7
  00000002            00409 DACPSS0=2
  00000003            00410 DACPSS1=3
  00000000            00411 DACNSS=0
  00000005            00412 DACOE=5
  00000006            00413 DACLPS=6
  00000007            00414 DACEN=7
  00000002            00415 DACPSS0=2
  00000003            00416 DACPSS1=3
  00000006            00417 FVRST=6
  00000007            00418 FVREN=7
  00000004            00419 FVRS0=4
  00000005            00420 FVRS1=5
  00000006            00421 FVRST=6
  00000007            00422 FVREN=7
  00000004            00423 FVRS0=4
  00000005            00424 FVRS1=5
  00000000            00425 IRNG0=0
  00000001            00426 IRNG1=1
  00000002            00427 ITRIM0=2
  00000003            00428 ITRIM1=3
  00000004            00429 ITRIM2=4
  00000005            00430 ITRIM3=5
  00000006            00431 ITRIM4=6
  00000007            00432 ITRIM5=7
  00000000            00433 IRNG0=0
  00000001            00434 IRNG1=1
  00000002            00435 ITRIM0=2
  00000003            00436 ITRIM1=3
  00000004            00437 ITRIM2=4
  00000005            00438 ITRIM3=5
  00000006            00439 ITRIM4=6
  00000007            00440 ITRIM5=7
  00000000            00441 EDG1STAT=0
  00000001            00442 EDG2STAT=1
  00000004            00443 EDG1POL=4
  00000007            00444 EDG2POL=7
  00000002            00445 EDG1SEL0=2
  00000003            00446 EDG1SEL1=3
  00000005            00447 EDG2SEL0=5
  00000006            00448 EDG2SEL1=6
  00000000            00449 EDG1STAT=0
  00000001            00450 EDG2STAT=1
  00000004            00451 EDG1POL=4
  00000007            00452 EDG2POL=7
  00000002            00453 EDG1SEL0=2
  00000003            00454 EDG1SEL1=3
  00000005            00455 EDG2SEL0=5
  00000006            00456 EDG2SEL1=6
  00000000            00457 CTTRIG=0
  00000001            00458 IDISSEN=1
  00000002            00459 EDGSEQEN=2
  00000003            00460 EDGEN=3
  00000004            00461 TGEN=4
  00000005            00462 CTMUSIDL=5
  00000007            00463 CTMUEN=7
  00000000            00464 CTTRIG=0
  00000001            00465 IDISSEN=1
  00000002            00466 EDGSEQEN=2
  00000003            00467 EDGEN=3
  00000004            00468 TGEN=4
  00000005            00469 CTMUSIDL=5
  00000007            00470 CTMUEN=7
  00000000            00471 SRRC1E=0
  00000001            00472 SRRC2E=1
  00000002            00473 SRRCKE=2
  00000003            00474 SRRPE=3
  00000004            00475 SRSC1E=4
  00000005            00476 SRSC2E=5
  00000006            00477 SRSCKE=6
  00000007            00478 SRSPE=7
  00000000            00479 SRPR=0
  00000001            00480 SRPS=1
  00000002            00481 SRNQEN=2
  00000003            00482 SRQEN=3
  00000007            00483 SRLEN=7
  00000004            00484 SRCLK0=4
  00000005            00485 SRCLK1=5
  00000006            00486 SRCLK2=6
  00000000            00487 C4TSEL0=0
  00000001            00488 C4TSEL1=1
  00000002            00489 C5TSEL0=2
  00000003            00490 C5TSEL1=3
  00000000            00491 C1TSEL0=0
  00000001            00492 C1TSEL1=1
  00000003            00493 C2TSEL0=3
  00000004            00494 C2TSEL1=4
  00000006            00495 C3TSEL0=6
  00000007            00496 C3TSEL1=7
  00000002            00497 TMR6ON=2
  00000000            00498 T6CKPS0=0
  00000001            00499 T6CKPS1=1
  00000003            00500 T6OUTPS0=3
  00000004            00501 T6OUTPS1=4
  00000005            00502 T6OUTPS2=5
  00000006            00503 T6OUTPS3=6
  00000002            00504 T5GVAL=2
  00000003            00505 T5GGO_NOT_DONE=3
  00000004            00506 T5GSPM=4
  00000005            00507 T5GTM=5
  00000006            00508 T5GPOL=6
  00000007            00509 TMR5GE=7
  00000000            00510 T5GSS0=0
  00000001            00511 T5GSS1=1
  00000003            00512 T5GGO=3
  00000003            00513 T5G_DONE=3
  00000000            00514 TMR5ON=0
  00000001            00515 T5RD16=1
  00000002            00516 NOT_T5SYNC=2
  00000003            00517 T5SOSCEN=3
  00000002            00518 T5SYNC=2
  00000004            00519 T5CKPS0=4
  00000005            00520 T5CKPS1=5
  00000006            00521 TMR5CS0=6
  00000007            00522 TMR5CS1=7
  00000002            00523 TMR4ON=2
  00000002            00524 PP_TMR4ON=2
  00000000            00525 T4CKPS0=0
  00000001            00526 T4CKPS1=1
  00000003            00527 T4OUTPS0=3
  00000004            00528 T4OUTPS1=4
  00000005            00529 T4OUTPS2=5
  00000006            00530 T4OUTPS3=6
  00000000            00531 CCP5M0=0
  00000001            00532 CCP5M1=1
  00000002            00533 CCP5M2=2
  00000003            00534 CCP5M3=3
  00000004            00535 DC5B0=4
  00000005            00536 DC5B1=5
  00000000            00537 CCP4M0=0
  00000001            00538 CCP4M1=1
  00000002            00539 CCP4M2=2
  00000003            00540 CCP4M3=3
  00000004            00541 DC4B0=4
  00000005            00542 DC4B1=5
  00000000            00543 STR3A=0
  00000001            00544 STR3B=1
  00000002            00545 STR3C=2
  00000003            00546 STR3D=3
  00000004            00547 STR3SYNC=4
  00000007            00548 CCP3ASE=7
  00000000            00549 PSS3BD0=0
  00000001            00550 PSS3BD1=1
  00000002            00551 PSS3AC0=2
  00000003            00552 PSS3AC1=3
  00000004            00553 CCP3AS0=4
  00000005            00554 CCP3AS1=5
  00000006            00555 CCP3AS2=6
  00000007            00556 CCP3ASE=7
  00000000            00557 PSS3BD0=0
  00000001            00558 PSS3BD1=1
  00000002            00559 PSS3AC0=2
  00000003            00560 PSS3AC1=3
  00000004            00561 CCP3AS0=4
  00000005            00562 CCP3AS1=5
  00000006            00563 CCP3AS2=6
  00000007            00564 P3RSEN=7
  00000000            00565 P3DC0=0
  00000001            00566 P3DC1=1
  00000002            00567 P3DC2=2
  00000003            00568 P3DC3=3
  00000004            00569 P3DC4=4
  00000005            00570 P3DC5=5
  00000006            00571 P3DC6=6
  00000000            00572 CCP3M0=0
  00000001            00573 CCP3M1=1
  00000002            00574 CCP3M2=2
  00000003            00575 CCP3M3=3
  00000004            00576 DC3B0=4
  00000005            00577 DC3B1=5
  00000006            00578 P3M0=6
  00000007            00579 P3M1=7
  00000000            00580 SLRA=0
  00000001            00581 SLRB=1
  00000002            00582 SLRC=2
  00000000            00583 WPUB0=0
  00000001            00584 WPUB1=1
  00000002            00585 WPUB2=2
  00000003            00586 WPUB3=3
  00000004            00587 WPUB4=4
  00000005            00588 WPUB5=5
  00000006            00589 WPUB6=6
  00000007            00590 WPUB7=7
  00000004            00591 IOCB4=4
  00000005            00592 IOCB5=5
  00000006            00593 IOCB6=6
  00000007            00594 IOCB7=7
  00000000            00595 STR2A=0
  00000001            00596 STR2B=1
  00000002            00597 STR2C=2
  00000003            00598 STR2D=3
  00000004            00599 STR2SYNC=4
  00000007            00600 CCP2ASE=7
  00000000            00601 PSS2BD0=0
  00000001            00602 PSS2BD1=1
  00000002            00603 PSS2AC0=2
  00000003            00604 PSS2AC1=3
  00000004            00605 CCP2AS0=4
  00000005            00606 CCP2AS1=5
  00000006            00607 CCP2AS2=6
  00000007            00608 CCP2ASE=7
  00000000            00609 PSS2BD0=0
  00000001            00610 PSS2BD1=1
  00000002            00611 PSS2AC0=2
  00000003            00612 PSS2AC1=3
  00000004            00613 CCP2AS0=4
  00000005            00614 CCP2AS1=5
  00000006            00615 CCP2AS2=6
  00000007            00616 P2RSEN=7
  00000000            00617 P2DC0=0
  00000001            00618 P2DC1=1
  00000002            00619 P2DC2=2
  00000003            00620 P2DC3=3
  00000004            00621 P2DC4=4
  00000005            00622 P2DC5=5
  00000006            00623 P2DC6=6
  00000006            00624 P2M0=6
  00000007            00625 P2M1=7
  00000000            00626 CCP2M0=0
  00000001            00627 CCP2M1=1
  00000002            00628 CCP2M2=2
  00000003            00629 CCP2M3=3
  00000004            00630 DC2B0=4
  00000005            00631 DC2B1=5
  00000000            00632 DHEN=0
  00000001            00633 AHEN=1
  00000002            00634 SBCDE=2
  00000003            00635 SDAHT=3
  00000004            00636 BOEN=4
  00000005            00637 SCIE=5
  00000006            00638 PCIE=6
  00000007            00639 ACKTIM=7
  00000000            00640 MSK0=0
  00000001            00641 MSK1=1
  00000002            00642 MSK2=2
  00000003            00643 MSK3=3
  00000004            00644 MSK4=4
  00000005            00645 MSK5=5
  00000006            00646 MSK6=6
  00000007            00647 MSK7=7
  00000000            00648 SEN=0
  00000000            00649 PP_SEN=0
  00000001            00650 RSEN=1
  00000001            00651 PP_RSEN=1
  00000002            00652 PEN=2
  00000002            00653 PP_PEN=2
  00000003            00654 RCEN=3
  00000003            00655 PP_RCEN=3
  00000004            00656 ACKEN=4
  00000004            00657 PP_ACKEN=4
  00000005            00658 ACKDT=5
  00000005            00659 PP_ACKDT=5
  00000006            00660 ACKSTAT=6
  00000007            00661 GCEN=7
  00000004            00662 CKP=4
  00000005            00663 SSPEN=5
  00000006            00664 SSPOV=6
  00000007            00665 WCOL=7
  00000000            00666 SSPM0=0
  00000001            00667 SSPM1=1
  00000002            00668 SSPM2=2
  00000003            00669 SSPM3=3
  00000000            00670 BF=0
  00000001            00671 UA=1
  00000002            00672 R_NOT_W=2
  00000002            00673 PP_R_NOT_W=2
  00000005            00674 D_NOT_A=5
  00000006            00675 CKE=6
  00000007            00676 SMP=7
  00000002            00677 NOT_W=2
  00000005            00678 NOT_A=5
  00000002            00679 R_W=2
  00000002            00680 PP_R_W=2
  00000005            00681 D_A=5
  00000002            00682 NOT_WRITE=2
  00000005            00683 NOT_ADDRESS=5
  00000000            00684 ABDEN=0
  00000001            00685 WUE=1
  00000003            00686 BRG16=3
  00000004            00687 CKTXP=4
  00000005            00688 DTRXP=5
  00000006            00689 RCIDL=6
  00000007            00690 ABDOVF=7
  00000004            00691 SCKP=4
  00000000            00692 ABDEN=0
  00000001            00693 WUE=1
  00000003            00694 BRG16=3
  00000004            00695 CKTXP=4
  00000005            00696 DTRXP=5
  00000006            00697 RCIDL=6
  00000007            00698 ABDOVF=7
  00000004            00699 SCKP=4
  00000000            00700 RX9D=0
  00000001            00701 OERR=1
  00000001            00702 PP_OERR=1
  00000002            00703 FERR=2
  00000003            00704 ADDEN=3
  00000004            00705 CREN=4
  00000004            00706 PP_CREN=4
  00000005            00707 SREN=5
  00000006            00708 RX9=6
  00000007            00709 SPEN=7
  00000003            00710 ADEN=3
  00000000            00711 RX9D=0
  00000001            00712 OERR=1
  00000001            00713 PP_OERR=1
  00000002            00714 FERR=2
  00000003            00715 ADDEN=3
  00000004            00716 CREN=4
  00000004            00717 PP_CREN=4
  00000005            00718 SREN=5
  00000006            00719 RX9=6
  00000007            00720 SPEN=7
  00000003            00721 ADEN=3
  00000000            00722 TX9D=0
  00000001            00723 TRMT=1
  00000002            00724 BRGH=2
  00000003            00725 SENDB=3
  00000003            00726 PP_SENDB=3
  00000004            00727 SYNC=4
  00000005            00728 TXEN=5
  00000006            00729 TX9=6
  00000007            00730 CSRC=7
  00000000            00731 TX9D=0
  00000001            00732 TRMT=1
  00000002            00733 BRGH=2
  00000003            00734 SENDB=3
  00000003            00735 PP_SENDB=3
  00000004            00736 SYNC=4
  00000005            00737 TXEN=5
  00000006            00738 TX9=6
  00000007            00739 CSRC=7
  00000000            00740 C2SYNC=0
  00000001            00741 C1SYNC=1
  00000002            00742 C2HYS=2
  00000003            00743 C1HYS=3
  00000004            00744 C2RSEL=4
  00000005            00745 C1RSEL=5
  00000006            00746 MC2OUT=6
  00000007            00747 MC1OUT=7
  00000000            00748 C2SYNC=0
  00000001            00749 C1SYNC=1
  00000002            00750 C2HYS=2
  00000003            00751 C1HYS=3
  00000004            00752 C2RSEL=4
  00000005            00753 C1RSEL=5
  00000006            00754 MC2OUT=6
  00000007            00755 MC1OUT=7
  00000002            00756 C2R=2
  00000003            00757 C2SP=3
  00000004            00758 C2POL=4
  00000005            00759 C2OE=5
  00000006            00760 C2OUT_CM2CON=6
  00000007            00761 C2ON=7
  00000000            00762 C2CH0=0
  00000001            00763 C2CH1=1
  00000002            00764 C2R=2
  00000003            00765 C2SP=3
  00000004            00766 C2POL=4
  00000005            00767 C2OE=5
  00000006            00768 C2OUT_CM2CON0=6
  00000007            00769 C2ON=7
  00000000            00770 C2CH0=0
  00000001            00771 C2CH1=1
  00000002            00772 C1R=2
  00000003            00773 C1SP=3
  00000004            00774 C1POL=4
  00000005            00775 C1OE=5
  00000006            00776 C1OUT_CM1CON=6
  00000007            00777 C1ON=7
  00000000            00778 C1CH0=0
  00000001            00779 C1CH1=1
  00000002            00780 C1R=2
  00000003            00781 C1SP=3
  00000004            00782 C1POL=4
  00000005            00783 C1OE=5
  00000006            00784 C1OUT_CM1CON0=6
  00000007            00785 C1ON=7
  00000000            00786 C1CH0=0
  00000001            00787 C1CH1=1
  00000000            00788 CCP3IE=0
  00000001            00789 CCP4IE=1
  00000002            00790 CCP5IE=2
  00000000            00791 CCP3IF=0
  00000001            00792 CCP4IF=1
  00000002            00793 CCP5IF=2
  00000000            00794 CCP3IP=0
  00000001            00795 CCP4IP=1
  00000002            00796 CCP5IP=2
  00000000            00797 TMR4IE=0
  00000001            00798 TMR5IE=1
  00000002            00799 TMR6IE=2
  00000000            00800 TMR4IF=0
  00000001            00801 TMR5IF=1
  00000002            00802 TMR6IF=2
  00000000            00803 TMR4IP=0
  00000001            00804 TMR5IP=1
  00000002            00805 TMR6IP=2
  00000000            00806 RA0=0
  00000001            00807 RA1=1
  00000002            00808 RA2=2
  00000003            00809 RA3=3
  00000004            00810 RA4=4
  00000005            00811 RA5=5
  00000006            00812 RA6=6
  00000007            00813 RA7=7
  00000000            00814 AN0=0
  00000001            00815 AN1=1
  00000002            00816 AN2=2
  00000003            00817 AN3=3
  00000005            00818 AN4=5
  00000000            00819 C12IN0M=0
  00000001            00820 C12IN1M=1
  00000002            00821 C2INP=2
  00000003            00822 C1INP=3
  00000004            00823 C1OUT_PORTA=4
  00000005            00824 C2OUT_PORTA=5
  00000000            00825 C12IN0N=0
  00000001            00826 C12IN1N=1
  00000002            00827 VREFM=2
  00000003            00828 VREFP=3
  00000004            00829 T0CKI=4
  00000005            00830 SS=5
  00000002            00831 VREFN=2
  00000004            00832 SRQ=4
  00000005            00833 NOT_SS=5
  00000002            00834 CVREF=2
  00000004            00835 CCP5=4
  00000005            00836 LVDIN=5
  00000002            00837 DACOUT=2
  00000005            00838 HLVDIN=5
  00000005            00839 SS1=5
  00000005            00840 NOT_SS1=5
  00000005            00841 SRNQ=5
  00000000            00842 RB0=0
  00000001            00843 RB1=1
  00000002            00844 RB2=2
  00000003            00845 RB3=3
  00000004            00846 RB4=4
  00000005            00847 RB5=5
  00000006            00848 RB6=6
  00000007            00849 RB7=7
  00000000            00850 INT0=0
  00000001            00851 INT1=1
  00000002            00852 INT2=2
  00000003            00853 CCP2_PORTB=3
  00000004            00854 KBI0=4
  00000005            00855 KBI1=5
  00000006            00856 KBI2=6
  00000007            00857 KBI3=7
  00000000            00858 AN12=0
  00000001            00859 AN10=1
  00000002            00860 AN8=2
  00000003            00861 AN9=3
  00000004            00862 AN11=4
  00000005            00863 AN13=5
  00000006            00864 TX2=6
  00000007            00865 RX2=7
  00000000            00866 FLT0=0
  00000001            00867 C12IN3M=1
  00000002            00868 P1B=2
  00000003            00869 C12IN2M=3
  00000004            00870 T5G=4
  00000005            00871 T1G=5
  00000006            00872 CK2=6
  00000007            00873 DT2=7
  00000000            00874 SRI=0
  00000001            00875 C12IN3N=1
  00000002            00876 CTED1=2
  00000003            00877 C12IN2N=3
  00000004            00878 P1D=4
  00000005            00879 CCP3_PORTB=5
  00000006            00880 PGC=6
  00000007            00881 PGD=7
  00000000            00882 CCP4=0
  00000001            00883 P1C=1
  00000002            00884 SDA2=2
  00000003            00885 CTED2=3
  00000005            00886 T3CKI_PORTB=5
  00000000            00887 SS2=0
  00000001            00888 SCL2=1
  00000002            00889 SDI2=2
  00000003            00890 P2A_PORTB=3
  00000005            00891 P3A_PORTB=5
  00000000            00892 NOT_SS2=0
  00000001            00893 SCK2=1
  00000003            00894 SDO2=3
  00000005            00895 P2B_PORTB=5
  00000000            00896 RC0=0
  00000001            00897 RC1=1
  00000002            00898 RC2=2
  00000003            00899 RC3=3
  00000004            00900 RC4=4
  00000005            00901 RC5=5
  00000006            00902 RC6=6
  00000007            00903 RC7=7
  00000000            00904 T1OSO=0
  00000001            00905 T1OSI=1
  00000002            00906 T5CKI=2
  00000003            00907 SCK=3
  00000004            00908 SDI=4
  00000005            00909 SDO=5
  00000006            00910 TX=6
  00000007            00911 RX=7
  00000000            00912 P2B_PORTC=0
  00000001            00913 P2A_PORTC=1
  00000002            00914 P1A=2
  00000003            00915 SCL=3
  00000004            00916 SDA=4
  00000006            00917 CK=6
  00000000            00918 T1CKI=0
  00000001            00919 CCP2_PORTC=1
  00000002            00920 CCP1=2
  00000003            00921 SCK1=3
  00000004            00922 SDI1=4
  00000005            00923 SDO1=5
  00000006            00924 TX1=6
  00000007            00925 RX1=7
  00000000            00926 T3CKI_PORTC=0
  00000002            00927 CTPLS=2
  00000003            00928 SCL1=3
  00000004            00929 SDA1=4
  00000006            00930 CK1=6
  00000007            00931 DT1=7
  00000000            00932 T3G=0
  00000002            00933 AN14=2
  00000003            00934 AN15=3
  00000004            00935 AN16=4
  00000005            00936 AN17=5
  00000006            00937 AN18=6
  00000007            00938 AN19=7
  00000006            00939 CCP3_PORTC=6
  00000007            00940 P3B=7
  00000006            00941 P3A_PORTC=6
  00000003            00942 RE3=3
  00000003            00943 MCLR=3
  00000003            00944 NOT_MCLR=3
  00000003            00945 VPP=3
  00000000            00946 LATA0=0
  00000001            00947 LATA1=1
  00000002            00948 LATA2=2
  00000003            00949 LATA3=3
  00000004            00950 LATA4=4
  00000005            00951 LATA5=5
  00000006            00952 LATA6=6
  00000007            00953 LATA7=7
  00000000            00954 LATB0=0
  00000001            00955 LATB1=1
  00000002            00956 LATB2=2
  00000003            00957 LATB3=3
  00000004            00958 LATB4=4
  00000005            00959 LATB5=5
  00000006            00960 LATB6=6
  00000007            00961 LATB7=7
  00000000            00962 LATC0=0
  00000001            00963 LATC1=1
  00000002            00964 LATC2=2
  00000003            00965 LATC3=3
  00000004            00966 LATC4=4
  00000005            00967 LATC5=5
  00000006            00968 LATC6=6
  00000007            00969 LATC7=7
  00000000            00970 TRISA0=0
  00000001            00971 TRISA1=1
  00000002            00972 TRISA2=2
  00000003            00973 TRISA3=3
  00000004            00974 TRISA4=4
  00000005            00975 TRISA5=5
  00000006            00976 TRISA6=6
  00000007            00977 TRISA7=7
  00000000            00978 RA0=0
  00000001            00979 RA1=1
  00000002            00980 RA2=2
  00000003            00981 RA3=3
  00000004            00982 RA4=4
  00000005            00983 RA5=5
  00000006            00984 RA6=6
  00000007            00985 RA7=7
  00000000            00986 TRISA0=0
  00000001            00987 TRISA1=1
  00000002            00988 TRISA2=2
  00000003            00989 TRISA3=3
  00000004            00990 TRISA4=4
  00000005            00991 TRISA5=5
  00000006            00992 TRISA6=6
  00000007            00993 TRISA7=7
  00000000            00994 RA0=0
  00000001            00995 RA1=1
  00000002            00996 RA2=2
  00000003            00997 RA3=3
  00000004            00998 RA4=4
  00000005            00999 RA5=5
  00000006            01000 RA6=6
  00000007            01001 RA7=7
  00000000            01002 TRISB0=0
  00000001            01003 TRISB1=1
  00000002            01004 TRISB2=2
  00000003            01005 TRISB3=3
  00000004            01006 TRISB4=4
  00000005            01007 TRISB5=5
  00000006            01008 TRISB6=6
  00000007            01009 TRISB7=7
  00000000            01010 RB0=0
  00000001            01011 RB1=1
  00000002            01012 RB2=2
  00000003            01013 RB3=3
  00000004            01014 RB4=4
  00000005            01015 RB5=5
  00000006            01016 RB6=6
  00000007            01017 RB7=7
  00000000            01018 TRISB0=0
  00000001            01019 TRISB1=1
  00000002            01020 TRISB2=2
  00000003            01021 TRISB3=3
  00000004            01022 TRISB4=4
  00000005            01023 TRISB5=5
  00000006            01024 TRISB6=6
  00000007            01025 TRISB7=7
  00000000            01026 RB0=0
  00000001            01027 RB1=1
  00000002            01028 RB2=2
  00000003            01029 RB3=3
  00000004            01030 RB4=4
  00000005            01031 RB5=5
  00000006            01032 RB6=6
  00000007            01033 RB7=7
  00000000            01034 TRISC0=0
  00000001            01035 TRISC1=1
  00000002            01036 TRISC2=2
  00000003            01037 TRISC3=3
  00000004            01038 TRISC4=4
  00000005            01039 TRISC5=5
  00000006            01040 TRISC6=6
  00000007            01041 TRISC7=7
  00000000            01042 RC0=0
  00000001            01043 RC1=1
  00000002            01044 RC2=2
  00000003            01045 RC3=3
  00000004            01046 RC4=4
  00000005            01047 RC5=5
  00000006            01048 RC6=6
  00000007            01049 RC7=7
  00000000            01050 TRISC0=0
  00000001            01051 TRISC1=1
  00000002            01052 TRISC2=2
  00000003            01053 TRISC3=3
  00000004            01054 TRISC4=4
  00000005            01055 TRISC5=5
  00000006            01056 TRISC6=6
  00000007            01057 TRISC7=7
  00000000            01058 RC0=0
  00000001            01059 RC1=1
  00000002            01060 RC2=2
  00000003            01061 RC3=3
  00000004            01062 RC4=4
  00000005            01063 RC5=5
  00000006            01064 RC6=6
  00000007            01065 RC7=7
  00000007            01066 WPUE3=7
  00000006            01067 PLLEN=6
  00000007            01068 INTSRC=7
  00000000            01069 TUN0=0
  00000001            01070 TUN1=1
  00000002            01071 TUN2=2
  00000003            01072 TUN3=3
  00000004            01073 TUN4=4
  00000005            01074 TUN5=5
  00000004            01075 HLVDEN=4
  00000005            01076 IRVST=5
  00000006            01077 BGVST=6
  00000007            01078 VDIRMAG=7
  00000000            01079 HLVDL0=0
  00000001            01080 HLVDL1=1
  00000002            01081 HLVDL2=2
  00000003            01082 HLVDL3=3
  00000000            01083 LVDL0=0
  00000001            01084 LVDL1=1
  00000002            01085 LVDL2=2
  00000003            01086 LVDL3=3
  00000004            01087 LVDEN=4
  00000005            01088 IVRST=5
  00000000            01089 LVV0=0
  00000001            01090 LVV1=1
  00000002            01091 LVV2=2
  00000003            01092 LVV3=3
  00000005            01093 BGST=5
  00000004            01094 HLVDEN=4
  00000005            01095 IRVST=5
  00000006            01096 BGVST=6
  00000007            01097 VDIRMAG=7
  00000000            01098 HLVDL0=0
  00000001            01099 HLVDL1=1
  00000002            01100 HLVDL2=2
  00000003            01101 HLVDL3=3
  00000000            01102 LVDL0=0
  00000001            01103 LVDL1=1
  00000002            01104 LVDL2=2
  00000003            01105 LVDL3=3
  00000004            01106 LVDEN=4
  00000005            01107 IVRST=5
  00000000            01108 LVV0=0
  00000001            01109 LVV1=1
  00000002            01110 LVV2=2
  00000003            01111 LVV3=3
  00000005            01112 BGST=5
  00000000            01113 TMR1IE=0
  00000001            01114 TMR2IE=1
  00000002            01115 CCP1IE=2
  00000003            01116 SSP1IE=3
  00000004            01117 TX1IE=4
  00000005            01118 RC1IE=5
  00000006            01119 ADIE=6
  00000003            01120 SSPIE=3
  00000004            01121 TXIE=4
  00000005            01122 RCIE=5
  00000000            01123 TMR1IF=0
  00000001            01124 TMR2IF=1
  00000002            01125 CCP1IF=2
  00000003            01126 SSP1IF=3
  00000004            01127 TX1IF=4
  00000005            01128 RC1IF=5
  00000006            01129 ADIF=6
  00000003            01130 SSPIF=3
  00000004            01131 TXIF=4
  00000004            01132 PP_TXIF=4
  00000005            01133 RCIF=5
  00000005            01134 PP_RCIF=5
  00000000            01135 TMR1IP=0
  00000001            01136 TMR2IP=1
  00000002            01137 CCP1IP=2
  00000003            01138 SSP1IP=3
  00000004            01139 TX1IP=4
  00000005            01140 RC1IP=5
  00000006            01141 ADIP=6
  00000003            01142 SSPIP=3
  00000004            01143 TXIP=4
  00000005            01144 RCIP=5
  00000000            01145 CCP2IE=0
  00000001            01146 TMR3IE=1
  00000002            01147 HLVDIE=2
  00000003            01148 BCL1IE=3
  00000004            01149 EEIE=4
  00000005            01150 C2IE=5
  00000006            01151 C1IE=6
  00000007            01152 OSCFIE=7
  00000002            01153 LVDIE=2
  00000003            01154 BCLIE=3
  00000000            01155 CCP2IF=0
  00000001            01156 TMR3IF=1
  00000002            01157 HLVDIF=2
  00000003            01158 BCL1IF=3
  00000004            01159 EEIF=4
  00000005            01160 C2IF=5
  00000006            01161 C1IF=6
  00000007            01162 OSCFIF=7
  00000002            01163 LVDIF=2
  00000003            01164 BCLIF=3
  00000000            01165 CCP2IP=0
  00000001            01166 TMR3IP=1
  00000002            01167 HLVDIP=2
  00000003            01168 BCL1IP=3
  00000004            01169 EEIP=4
  00000005            01170 C2IP=5
  00000006            01171 C1IP=6
  00000007            01172 OSCFIP=7
  00000002            01173 LVDIP=2
  00000003            01174 BCLIP=3
  00000000            01175 TMR1GIE=0
  00000001            01176 TMR3GIE=1
  00000002            01177 TMR5GIE=2
  00000003            01178 CTMUIE=3
  00000004            01179 TX2IE=4
  00000005            01180 RC2IE=5
  00000006            01181 BCL2IE=6
  00000007            01182 SSP2IE=7
  00000000            01183 TMR1GIF=0
  00000001            01184 TMR3GIF=1
  00000002            01185 TMR5GIF=2
  00000003            01186 CTMUIF=3
  00000004            01187 TX2IF=4
  00000005            01188 RC2IF=5
  00000006            01189 BCL2IF=6
  00000007            01190 SSP2IF=7
  00000000            01191 TMR1GIP=0
  00000001            01192 TMR3GIP=1
  00000002            01193 TMR5GIP=2
  00000003            01194 CTMUIP=3
  00000004            01195 TX2IP=4
  00000005            01196 RC2IP=5
  00000006            01197 BCL2IP=6
  00000007            01198 SSP2IP=7
  00000000            01199 RD=0
  00000000            01200 PP_RD=0
  00000001            01201 WR=1
  00000001            01202 PP_WR=1
  00000002            01203 WREN=2
  00000002            01204 PP_WREN=2
  00000003            01205 WRERR=3
  00000003            01206 PP_WRERR=3
  00000004            01207 FREE=4
  00000006            01208 CFGS=6
  00000007            01209 EEPGD=7
  00000007            01210 PP_EEPGD=7
  00000000            01211 EEADR0=0
  00000001            01212 EEADR1=1
  00000002            01213 EEADR2=2
  00000003            01214 EEADR3=3
  00000004            01215 EEADR4=4
  00000005            01216 EEADR5=5
  00000006            01217 EEADR6=6
  00000007            01218 EEADR7=7
  00000000            01219 RX9D=0
  00000001            01220 OERR=1
  00000001            01221 PP_OERR=1
  00000002            01222 FERR=2
  00000003            01223 ADDEN=3
  00000004            01224 CREN=4
  00000004            01225 PP_CREN=4
  00000005            01226 SREN=5
  00000006            01227 RX9=6
  00000007            01228 SPEN=7
  00000003            01229 ADEN=3
  00000000            01230 RX9D=0
  00000001            01231 OERR=1
  00000001            01232 PP_OERR=1
  00000002            01233 FERR=2
  00000003            01234 ADDEN=3
  00000004            01235 CREN=4
  00000004            01236 PP_CREN=4
  00000005            01237 SREN=5
  00000006            01238 RX9=6
  00000007            01239 SPEN=7
  00000003            01240 ADEN=3
  00000000            01241 RX9D=0
  00000001            01242 OERR=1
  00000001            01243 PP_OERR=1
  00000002            01244 FERR=2
  00000003            01245 ADDEN=3
  00000004            01246 CREN=4
  00000004            01247 PP_CREN=4
  00000005            01248 SREN=5
  00000006            01249 RX9=6
  00000007            01250 SPEN=7
  00000003            01251 ADEN=3
  00000000            01252 TX9D=0
  00000001            01253 TRMT=1
  00000002            01254 BRGH=2
  00000003            01255 SENDB=3
  00000003            01256 PP_SENDB=3
  00000004            01257 SYNC=4
  00000005            01258 TXEN=5
  00000006            01259 TX9=6
  00000007            01260 CSRC=7
  00000000            01261 TX9D=0
  00000001            01262 TRMT=1
  00000002            01263 BRGH=2
  00000003            01264 SENDB=3
  00000003            01265 PP_SENDB=3
  00000004            01266 SYNC=4
  00000005            01267 TXEN=5
  00000006            01268 TX9=6
  00000007            01269 CSRC=7
  00000000            01270 TX9D=0
  00000001            01271 TRMT=1
  00000002            01272 BRGH=2
  00000003            01273 SENDB=3
  00000003            01274 PP_SENDB=3
  00000004            01275 SYNC=4
  00000005            01276 TXEN=5
  00000006            01277 TX9=6
  00000007            01278 CSRC=7
  00000000            01279 TMR3ON=0
  00000001            01280 T3RD16=1
  00000002            01281 NOT_T3SYNC=2
  00000003            01282 T3SOSCEN=3
  00000003            01283 T3OSCEN=3
  00000004            01284 T3CKPS0=4
  00000005            01285 T3CKPS1=5
  00000006            01286 TMR3CS0=6
  00000007            01287 TMR3CS1=7
  00000002            01288 T3GVAL=2
  00000003            01289 T3GGO_NOT_DONE=3
  00000004            01290 T3GSPM=4
  00000005            01291 T3GTM=5
  00000006            01292 T3GPOL=6
  00000007            01293 TMR3GE=7
  00000000            01294 T3GSS0=0
  00000001            01295 T3GSS1=1
  00000003            01296 T3G_DONE=3
  00000003            01297 T3GGO=3
  00000007            01298 CCP1ASE=7
  00000000            01299 PSS1BD0=0
  00000001            01300 PSS1BD1=1
  00000002            01301 PSS1AC0=2
  00000003            01302 PSS1AC1=3
  00000004            01303 CCP1AS0=4
  00000005            01304 CCP1AS1=5
  00000006            01305 CCP1AS2=6
  00000007            01306 ECCPASE=7
  00000000            01307 PSSBD0=0
  00000001            01308 PSSBD1=1
  00000002            01309 PSSAC0=2
  00000003            01310 PSSAC1=3
  00000004            01311 ECCPAS0=4
  00000005            01312 ECCPAS1=5
  00000006            01313 ECCPAS2=6
  00000007            01314 CCP1ASE=7
  00000000            01315 PSS1BD0=0
  00000001            01316 PSS1BD1=1
  00000002            01317 PSS1AC0=2
  00000003            01318 PSS1AC1=3
  00000004            01319 CCP1AS0=4
  00000005            01320 CCP1AS1=5
  00000006            01321 CCP1AS2=6
  00000007            01322 ECCPASE=7
  00000000            01323 PSSBD0=0
  00000001            01324 PSSBD1=1
  00000002            01325 PSSAC0=2
  00000003            01326 PSSAC1=3
  00000004            01327 ECCPAS0=4
  00000005            01328 ECCPAS1=5
  00000006            01329 ECCPAS2=6
  00000007            01330 P1RSEN=7
  00000000            01331 P1DC0=0
  00000001            01332 P1DC1=1
  00000002            01333 P1DC2=2
  00000003            01334 P1DC3=3
  00000004            01335 P1DC4=4
  00000005            01336 P1DC5=5
  00000006            01337 P1DC6=6
  00000007            01338 PRSEN=7
  00000000            01339 PDC0=0
  00000001            01340 PDC1=1
  00000002            01341 PDC2=2
  00000003            01342 PDC3=3
  00000004            01343 PDC4=4
  00000005            01344 PDC5=5
  00000006            01345 PDC6=6
  00000007            01346 P1RSEN=7
  00000000            01347 P1DC0=0
  00000001            01348 P1DC1=1
  00000002            01349 P1DC2=2
  00000003            01350 P1DC3=3
  00000004            01351 P1DC4=4
  00000005            01352 P1DC5=5
  00000006            01353 P1DC6=6
  00000007            01354 PRSEN=7
  00000000            01355 PDC0=0
  00000001            01356 PDC1=1
  00000002            01357 PDC2=2
  00000003            01358 PDC3=3
  00000004            01359 PDC4=4
  00000005            01360 PDC5=5
  00000006            01361 PDC6=6
  00000000            01362 ABDEN=0
  00000001            01363 WUE=1
  00000003            01364 BRG16=3
  00000004            01365 CKTXP=4
  00000005            01366 DTRXP=5
  00000006            01367 RCIDL=6
  00000007            01368 ABDOVF=7
  00000004            01369 SCKP=4
  00000000            01370 ABDEN=0
  00000001            01371 WUE=1
  00000003            01372 BRG16=3
  00000004            01373 CKTXP=4
  00000005            01374 DTRXP=5
  00000006            01375 RCIDL=6
  00000007            01376 ABDOVF=7
  00000004            01377 SCKP=4
  00000000            01378 ABDEN=0
  00000001            01379 WUE=1
  00000003            01380 BRG16=3
  00000004            01381 CKTXP=4
  00000005            01382 DTRXP=5
  00000006            01383 RCIDL=6
  00000007            01384 ABDOVF=7
  00000004            01385 SCKP=4
  00000000            01386 ABDEN=0
  00000001            01387 WUE=1
  00000003            01388 BRG16=3
  00000004            01389 CKTXP=4
  00000005            01390 DTRXP=5
  00000006            01391 RCIDL=6
  00000007            01392 ABDOVF=7
  00000004            01393 SCKP=4
  00000000            01394 STR1A=0
  00000001            01395 STR1B=1
  00000002            01396 STR1C=2
  00000003            01397 STR1D=3
  00000004            01398 STR1SYNC=4
  00000000            01399 STR1A=0
  00000001            01400 STR1B=1
  00000002            01401 STR1C=2
  00000003            01402 STR1D=3
  00000004            01403 STR1SYNC=4
  00000002            01404 TMR2ON=2
  00000002            01405 PP_TMR2ON=2
  00000000            01406 T2CKPS0=0
  00000000            01407 PP_T2CKPS0=0
  00000001            01408 T2CKPS1=1
  00000001            01409 PP_T2CKPS1=1
  00000003            01410 T2OUTPS0=3
  00000004            01411 T2OUTPS1=4
  00000005            01412 T2OUTPS2=5
  00000006            01413 T2OUTPS3=6
  00000000            01414 CCP1M0=0
  00000001            01415 CCP1M1=1
  00000002            01416 CCP1M2=2
  00000003            01417 CCP1M3=3
  00000004            01418 DC1B0=4
  00000005            01419 DC1B1=5
  00000006            01420 P1M0=6
  00000007            01421 P1M1=7
  00000007            01422 ADFM=7
  00000000            01423 ADCS0=0
  00000001            01424 ADCS1=1
  00000002            01425 ADCS2=2
  00000003            01426 ACQT0=3
  00000004            01427 ACQT1=4
  00000005            01428 ACQT2=5
  00000007            01429 TRIGSEL=7
  00000000            01430 NVCFG0=0
  00000001            01431 NVCFG1=1
  00000002            01432 PVCFG0=2
  00000003            01433 PVCFG1=3
  00000000            01434 ADON=0
  00000000            01435 PP_ADON=0
  00000001            01436 GO_NOT_DONE=1
  00000001            01437 PP_GO_NOT_DONE=1
  00000001            01438 DONE=1
  00000001            01439 NOT_DONE=1
  00000001            01440 GO_DONE=1
  00000001            01441 PP_GO_DONE=1
  00000000            01442 SEN=0
  00000000            01443 PP_SEN=0
  00000001            01444 RSEN=1
  00000001            01445 PP_RSEN=1
  00000002            01446 PEN=2
  00000002            01447 PP_PEN=2
  00000003            01448 RCEN=3
  00000003            01449 PP_RCEN=3
  00000004            01450 ACKEN=4
  00000004            01451 PP_ACKEN=4
  00000005            01452 ACKDT=5
  00000005            01453 PP_ACKDT=5
  00000006            01454 ACKSTAT=6
  00000007            01455 GCEN=7
  00000000            01456 SEN=0
  00000000            01457 PP_SEN=0
  00000001            01458 RSEN=1
  00000001            01459 PP_RSEN=1
  00000002            01460 PEN=2
  00000002            01461 PP_PEN=2
  00000003            01462 RCEN=3
  00000003            01463 PP_RCEN=3
  00000004            01464 ACKEN=4
  00000004            01465 PP_ACKEN=4
  00000005            01466 ACKDT=5
  00000005            01467 PP_ACKDT=5
  00000006            01468 ACKSTAT=6
  00000007            01469 GCEN=7
  00000004            01470 CKP=4
  00000005            01471 SSPEN=5
  00000006            01472 SSPOV=6
  00000007            01473 WCOL=7
  00000000            01474 SSPM0=0
  00000001            01475 SSPM1=1
  00000002            01476 SSPM2=2
  00000003            01477 SSPM3=3
  00000004            01478 CKP=4
  00000005            01479 SSPEN=5
  00000006            01480 SSPOV=6
  00000007            01481 WCOL=7
  00000000            01482 SSPM0=0
  00000001            01483 SSPM1=1
  00000002            01484 SSPM2=2
  00000003            01485 SSPM3=3
  00000000            01486 BF=0
  00000001            01487 UA=1
  00000002            01488 R_NOT_W=2
  00000002            01489 PP_R_NOT_W=2
  00000005            01490 D_NOT_A=5
  00000006            01491 CKE=6
  00000007            01492 SMP=7
  00000002            01493 NOT_W=2
  00000005            01494 NOT_A=5
  00000002            01495 R_W=2
  00000002            01496 PP_R_W=2
  00000005            01497 D_A=5
  00000002            01498 NOT_WRITE=2
  00000005            01499 NOT_ADDRESS=5
  00000000            01500 BF=0
  00000001            01501 UA=1
  00000002            01502 R_NOT_W=2
  00000002            01503 PP_R_NOT_W=2
  00000005            01504 D_NOT_A=5
  00000006            01505 CKE=6
  00000007            01506 SMP=7
  00000002            01507 NOT_W=2
  00000005            01508 NOT_A=5
  00000002            01509 R_W=2
  00000002            01510 PP_R_W=2
  00000005            01511 D_A=5
  00000002            01512 NOT_WRITE=2
  00000005            01513 NOT_ADDRESS=5
  00000000            01514 MSK0=0
  00000001            01515 MSK1=1
  00000002            01516 MSK2=2
  00000003            01517 MSK3=3
  00000004            01518 MSK4=4
  00000005            01519 MSK5=5
  00000006            01520 MSK6=6
  00000007            01521 MSK7=7
  00000000            01522 MSK0=0
  00000001            01523 MSK1=1
  00000002            01524 MSK2=2
  00000003            01525 MSK3=3
  00000004            01526 MSK4=4
  00000005            01527 MSK5=5
  00000006            01528 MSK6=6
  00000007            01529 MSK7=7
  00000000            01530 DHEN=0
  00000001            01531 AHEN=1
  00000002            01532 SBCDE=2
  00000003            01533 SDAHT=3
  00000004            01534 BOEN=4
  00000005            01535 SCIE=5
  00000006            01536 PCIE=6
  00000007            01537 ACKTIM=7
  00000000            01538 DHEN=0
  00000001            01539 AHEN=1
  00000002            01540 SBCDE=2
  00000003            01541 SDAHT=3
  00000004            01542 BOEN=4
  00000005            01543 SCIE=5
  00000006            01544 PCIE=6
  00000007            01545 ACKTIM=7
  00000002            01546 T1GVAL=2
  00000003            01547 T1GGO_NOT_DONE=3
  00000004            01548 T1GSPM=4
  00000005            01549 T1GTM=5
  00000006            01550 T1GPOL=6
  00000007            01551 TMR1GE=7
  00000000            01552 T1GSS0=0
  00000001            01553 T1GSS1=1
  00000003            01554 T1G_DONE=3
  00000003            01555 T1GGO=3
  00000000            01556 TMR1ON=0
  00000001            01557 T1RD16=1
  00000002            01558 NOT_T1SYNC=2
  00000003            01559 T1SOSCEN=3
  00000001            01560 RD16=1
  00000001            01561 PP_RD16=1
  00000002            01562 T1SYNC=2
  00000003            01563 T1OSCEN=3
  00000004            01564 T1CKPS0=4
  00000005            01565 T1CKPS1=5
  00000006            01566 TMR1CS0=6
  00000007            01567 TMR1CS1=7
  00000000            01568 NOT_BOR=0
  00000001            01569 NOT_POR=1
  00000002            01570 NOT_PD=2
  00000003            01571 NOT_TO=3
  00000004            01572 NOT_RI=4
  00000006            01573 SBOREN=6
  00000007            01574 IPEN=7
  00000000            01575 BOR=0
  00000001            01576 POR=1
  00000002            01577 PD=2
  00000003            01578 TO=3
  00000004            01579 RI=4
  00000000            01580 SWDTEN=0
  00000000            01581 SWDTE=0
  00000000            01582 LFIOFS=0
  00000001            01583 MFIOFS=1
  00000002            01584 PRISD=2
  00000003            01585 SOSCGO=3
  00000004            01586 MFIOSEL=4
  00000006            01587 SOSCRUN=6
  00000007            01588 PLLRDY=7
  00000002            01589 HFIOFS=2
  00000003            01590 OSTS=3
  00000007            01591 IDLEN=7
  00000000            01592 SCS0=0
  00000001            01593 SCS1=1
  00000002            01594 IOFS=2
  00000004            01595 IRCF0=4
  00000005            01596 IRCF1=5
  00000006            01597 IRCF2=6
  00000003            01598 PSA=3
  00000004            01599 T0SE=4
  00000005            01600 T0CS=5
  00000006            01601 T08BIT=6
  00000007            01602 TMR0ON=7
  00000000            01603 T0PS0=0
  00000001            01604 T0PS1=1
  00000002            01605 T0PS2=2
  00000000            01606 C=0
  00000001            01607 DC=1
  00000002            01608 Z=2
  00000003            01609 OV=3
  00000004            01610 N=4
  00000000            01611 INT1IF=0
  00000001            01612 INT2IF=1
  00000003            01613 INT1IE=3
  00000004            01614 INT2IE=4
  00000006            01615 INT1IP=6
  00000007            01616 INT2IP=7
  00000000            01617 INT1F=0
  00000001            01618 INT2F=1
  00000003            01619 INT1E=3
  00000004            01620 INT2E=4
  00000006            01621 INT1P=6
  00000007            01622 INT2P=7
  00000000            01623 RBIP=0
  00000002            01624 TMR0IP=2
  00000004            01625 INTEDG2=4
  00000005            01626 INTEDG1=5
  00000006            01627 INTEDG0=6
  00000007            01628 NOT_RBPU=7
  00000007            01629 RBPU=7
  00000000            01630 RBIF=0
  00000001            01631 INT0IF=1
  00000002            01632 TMR0IF=2
  00000003            01633 RBIE=3
  00000004            01634 INT0IE=4
  00000005            01635 TMR0IE=5
  00000006            01636 PEIE_GIEL=6
  00000007            01637 GIE_GIEH=7
  00000001            01638 INT0F=1
  00000002            01639 T0IF=2
  00000004            01640 INT0E=4
  00000005            01641 T0IE=5
  00000006            01642 PEIE=6
  00000007            01643 GIE=7
  00000006            01644 GIEL=6
  00000007            01645 GIEH=7
  00000006            01646 STKUNF=6
  00000007            01647 STKFUL=7
  00000000            01648 SP0=0
  00000001            01649 SP1=1
  00000002            01650 SP2=2
  00000003            01651 SP3=3
  00000004            01652 SP4=4
  00000007            01653 STKOVF=7
  00000FFF            01654   __MAXRAM  0X0FFF
                      01655   __BADRAM  0X0300-0X0F37
                      01656   __BADRAM  0X0F3B-0X0F3C
                      01657   __BADRAM  0X0F83
                      01658   __BADRAM  0X0F85-0X0F88
                      01659   __BADRAM  0X0F8C-0X0F91
                      01660   __BADRAM  0X0F95
                      01661   __BADRAM  0X0F97-0X0F9A
                      01662   __BADRAM  0X0FAA
                      01663   __BADRAM  0X0FB5
                      01664   __BADRAM  0X0FD4
  00300001            01665 config1h equ 0X300001
  00300002            01666 config2l equ 0X300002
  00300003            01667 config2h equ 0X300003
  00300005            01668 config3h equ 0X300005
  00300006            01669 config4l equ 0X300006
  00300008            01670 config5l equ 0X300008
  00300009            01671 config5h equ 0X300009
  0030000A            01672 config6l equ 0X30000A
  0030000B            01673 config6h equ 0X30000B
  0030000C            01674 config7l equ 0X30000C
  0030000D            01675 config7h equ 0X30000D
  000000F0            01676 FOSC_LP_1 equ 0XF0
  000000F1            01677 FOSC_XT_1 equ 0XF1
  000000F2            01678 FOSC_HSHP_1 equ 0XF2
  000000F3            01679 FOSC_HSMP_1 equ 0XF3
  000000F4            01680 FOSC_ECHP_1 equ 0XF4
  000000F5            01681 FOSC_ECHPIO6_1 equ 0XF5
  000000F6            01682 FOSC_RC_1 equ 0XF6
  000000F7            01683 FOSC_RCIO6_1 equ 0XF7
  000000F8            01684 FOSC_INTIO67_1 equ 0XF8
  000000F9            01685 FOSC_INTIO7_1 equ 0XF9
  000000FA            01686 FOSC_ECMP_1 equ 0XFA
  000000FB            01687 FOSC_ECMPIO6_1 equ 0XFB
  000000FC            01688 FOSC_ECLP_1 equ 0XFC
  000000FD            01689 FOSC_ECLPIO6_1 equ 0XFD
  000000EF            01690 PLLCFG_OFF_1 equ 0XEF
  000000FF            01691 PLLCFG_ON_1 equ 0XFF
  000000DF            01692 PRICLKEN_OFF_1 equ 0XDF
  000000FF            01693 PRICLKEN_ON_1 equ 0XFF
  000000BF            01694 FCMEN_OFF_1 equ 0XBF
  000000FF            01695 FCMEN_ON_1 equ 0XFF
  0000007F            01696 IESO_OFF_1 equ 0X7F
  000000FF            01697 IESO_ON_1 equ 0XFF
  000000FE            01698 PWRTEN_ON_2 equ 0XFE
  000000FF            01699 PWRTEN_OFF_2 equ 0XFF
  000000F9            01700 BOREN_OFF_2 equ 0XF9
  000000FB            01701 BOREN_ON_2 equ 0XFB
  000000FD            01702 BOREN_NOSLP_2 equ 0XFD
  000000FF            01703 BOREN_SBORDIS_2 equ 0XFF
  000000E7            01704 BORV_285_2 equ 0XE7
  000000EF            01705 BORV_250_2 equ 0XEF
  000000F7            01706 BORV_220_2 equ 0XF7
  000000FF            01707 BORV_190_2 equ 0XFF
  000000FC            01708 WDTEN_OFF_2 equ 0XFC
  000000FD            01709 WDTEN_NOSLP_2 equ 0XFD
  000000FE            01710 WDTEN_SWON_2 equ 0XFE
  000000FF            01711 WDTEN_ON_2 equ 0XFF
  000000C3            01712 WDTPS_1_2 equ 0XC3
  000000C7            01713 WDTPS_2_2 equ 0XC7
  000000CB            01714 WDTPS_4_2 equ 0XCB
  000000CF            01715 WDTPS_8_2 equ 0XCF
  000000D3            01716 WDTPS_16_2 equ 0XD3
  000000D7            01717 WDTPS_32_2 equ 0XD7
  000000DB            01718 WDTPS_64_2 equ 0XDB
  000000DF            01719 WDTPS_128_2 equ 0XDF
  000000E3            01720 WDTPS_256_2 equ 0XE3
  000000E7            01721 WDTPS_512_2 equ 0XE7
  000000EB            01722 WDTPS_1024_2 equ 0XEB
  000000EF            01723 WDTPS_2048_2 equ 0XEF
  000000F3            01724 WDTPS_4096_2 equ 0XF3
  000000F7            01725 WDTPS_8192_2 equ 0XF7
  000000FB            01726 WDTPS_16384_2 equ 0XFB
  000000FF            01727 WDTPS_32768_2 equ 0XFF
  000000FE            01728 CCP2MX_PORTB3_3 equ 0XFE
  000000FF            01729 CCP2MX_PORTC1_3 equ 0XFF
  000000FD            01730 PBADEN_OFF_3 equ 0XFD
  000000FF            01731 PBADEN_ON_3 equ 0XFF
  000000FB            01732 CCP3MX_PORTC6_3 equ 0XFB
  000000FF            01733 CCP3MX_PORTB5_3 equ 0XFF
  000000F7            01734 HFOFST_OFF_3 equ 0XF7
  000000FF            01735 HFOFST_ON_3 equ 0XFF
  000000EF            01736 T3CMX_PORTB5_3 equ 0XEF
  000000FF            01737 T3CMX_PORTC0_3 equ 0XFF
  000000DF            01738 P2BMX_PORTC0_3 equ 0XDF
  000000FF            01739 P2BMX_PORTB5_3 equ 0XFF
  0000007F            01740 MCLRE_INTMCLR_3 equ 0X7F
  000000FF            01741 MCLRE_EXTMCLR_3 equ 0XFF
  000000FE            01742 STVREN_OFF_4 equ 0XFE
  000000FF            01743 STVREN_ON_4 equ 0XFF
  000000FB            01744 LVP_OFF_4 equ 0XFB
  000000FF            01745 LVP_ON_4 equ 0XFF
  000000BF            01746 XINST_OFF_4 equ 0XBF
  000000FF            01747 XINST_ON_4 equ 0XFF
  0000007F            01748 DEBUG_ON_4 equ 0X7F
  000000FF            01749 DEBUG_OFF_4 equ 0XFF
  000000FE            01750 CP0_ON_5 equ 0XFE
  000000FF            01751 CP0_OFF_5 equ 0XFF
  000000FD            01752 CP1_ON_5 equ 0XFD
  000000FF            01753 CP1_OFF_5 equ 0XFF
  000000FB            01754 CP2_ON_5 equ 0XFB
  000000FF            01755 CP2_OFF_5 equ 0XFF
  000000F7            01756 CP3_ON_5 equ 0XF7
  000000FF            01757 CP3_OFF_5 equ 0XFF
  000000BF            01758 CPB_ON_5 equ 0XBF
  000000FF            01759 CPB_OFF_5 equ 0XFF
  0000007F            01760 CPD_ON_5 equ 0X7F
  000000FF            01761 CPD_OFF_5 equ 0XFF
  000000FE            01762 WRT0_ON_6 equ 0XFE
  000000FF            01763 WRT0_OFF_6 equ 0XFF
  000000FD            01764 WRT1_ON_6 equ 0XFD
  000000FF            01765 WRT1_OFF_6 equ 0XFF
  000000FB            01766 WRT2_ON_6 equ 0XFB
  000000FF            01767 WRT2_OFF_6 equ 0XFF
  000000F7            01768 WRT3_ON_6 equ 0XF7
  000000FF            01769 WRT3_OFF_6 equ 0XFF
  000000DF            01770 WRTC_ON_6 equ 0XDF
  000000FF            01771 WRTC_OFF_6 equ 0XFF
  000000BF            01772 WRTB_ON_6 equ 0XBF
  000000FF            01773 WRTB_OFF_6 equ 0XFF
  0000007F            01774 WRTD_ON_6 equ 0X7F
  000000FF            01775 WRTD_OFF_6 equ 0XFF
  000000FE            01776 EBTR0_ON_7 equ 0XFE
  000000FF            01777 EBTR0_OFF_7 equ 0XFF
  000000FD            01778 EBTR1_ON_7 equ 0XFD
  000000FF            01779 EBTR1_OFF_7 equ 0XFF
  000000FB            01780 EBTR2_ON_7 equ 0XFB
  000000FF            01781 EBTR2_OFF_7 equ 0XFF
  000000F7            01782 EBTR3_ON_7 equ 0XF7
  000000FF            01783 EBTR3_OFF_7 equ 0XFF
  000000BF            01784 EBTRB_ON_7 equ 0XBF
  000000FF            01785 EBTRB_OFF_7 equ 0XFF
  003FFFFE            01786 DEVID1 equ 0X3FFFFE
  003FFFFF            01787 DEVID2 equ 0X3FFFFF
  00200000            01788 IDLOC0 equ 0X200000
  00200000            01789 __IDLOC0 equ 0X200000
  00200001            01790 IDLOC1 equ 0X200001
  00200001            01791 __IDLOC1 equ 0X200001
  00200002            01792 IDLOC2 equ 0X200002
  00200002            01793 __IDLOC2 equ 0X200002
  00200003            01794 IDLOC3 equ 0X200003
  00200003            01795 __IDLOC3 equ 0X200003
  00200004            01796 IDLOC4 equ 0X200004
  00200004            01797 __IDLOC4 equ 0X200004
  00200005            01798 IDLOC5 equ 0X200005
  00200005            01799 __IDLOC5 equ 0X200005
  00200006            01800 IDLOC6 equ 0X200006
  00200006            01801 __IDLOC6 equ 0X200006
  00200007            01802 IDLOC7 equ 0X200007
  00200007            01803 __IDLOC7 equ 0X200007
                      01806 #define __18F24K22 1
                      01807 #define XTAL 4
                      01808 #define _CORE 16
                      01809 #define _MAXRAM 768
                      01810 #define _RAM_END 768
                      01811 #define _MAXMEM 0X4000
                      01812 #define _ADC 19
                      01813 #define _ADC_RES 10
                      01814 #define _EEPROM 256
                      01815 #define RAM_BANKS 0
                      01816 #define _USART 2
                      01817 #define _USB 0
                      01818 #define _USB#RAM_START 0
                      01819 #define _FLASH 1
                      01820 #define _CWRITE_BLOCK 32
                      01821 #define bankA_Start 0
                      01822 #define bankA_End 95
                      01823 #define _SYSTEM_VARIABLE_COUNT 27
  00000000            01824 ram_bank = 0
                      01825 #define LCD#TYPE 0
                      01826 #define __INTERRUPTS_ENABLED 1
                      01827 #define __HIGH_INTERRUPTS_ENABLED 1
                      01839 #define clrw clrf WREG
                      01840 #define negw negf WREG
                      01841 #define skpc btfss STATUS,0
                      01842 #define skpnc btfsc STATUS,0
                      01843 #define clrc bcf STATUS,0
                      01844 #define setc bsf STATUS,0
                      01845 #define skpz btfss STATUS,2
                      01846 #define skpnz btfsc STATUS,2
                      01847 #define clrz bcf STATUS,2
                      01848 #define setz bsf STATUS,2
                      01849 MOVFW macro pVarin
                      01850     movf pVarin,W
                      01851     endm
                      01852 rlf macro pVarin,pDestination
                      01853     rlcf pVarin,pDestination
                      01854     endm
                      01855 rrf macro pVarin,pDestination
                      01856     rrcf pVarin,pDestination
                      01857     endm
                      01858 jump macro pLabel
                      01859     goto pLabel
                      01860     endm
                      01861 f@call macro pDestination
                      01862 if (pDestination < 1)
                      01863     call pDestination
                      01864 else
                      01865 if (pDestination > $)
                      01866     call pDestination
                      01867 else
                      01868 if (pDestination < ($ - 0X03FF))
                      01869     call pDestination
                      01870 else
                      01871     rcall pDestination
                      01872 endif
                      01873 endif
                      01874 endif
                      01875     endm
                      01876 f@jump macro pDestination
                      01877 ifdef watchdog_req
                      01878 if ($ == pDestination)
                      01879     clrwdt
                      01880 endif
                      01881 endif
                      01882 if (pDestination < 1)
                      01883     goto pDestination
                      01884 else
                      01885 if ((pDestination) > $)
                      01886     goto pDestination
                      01887 else
                      01888 if ((pDestination) < ($ - 0X03FF))
                      01889     goto pDestination
                      01890 else
                      01891     bra pDestination
                      01892 endif
                      01893 endif
                      01894 endif
                      01895     endm
                      01896 ifdef watchdog_req
                      01897     chk@slf macro pDestination
                      01898 if ($ == pDestination)
                      01899     clrwdt
                      01900 endif
                      01901     endm
                      01902 endif
                      01903 g@oto macro pDestination
                      01904 if (pDestination < 1)
                      01905     btfsc STATUS,OV
                      01906     goto pDestination
                      01907 else
                      01908 if (pDestination > $)
                      01909     btfsc STATUS,OV
                      01910     goto pDestination
                      01911 else
                      01912 if (pDestination < ($ - 127))
                      01913     btfsc STATUS,OV
                      01914     goto pDestination
                      01915 else
                      01916     bov pDestination
                      01917 endif
                      01918 endif
                      01919 endif
                      01920     endm
                      01921 go@to macro pDestination
                      01922 if (pDestination < 1)
                      01923     goto pDestination
                      01924 else
                      01925 if (pDestination > $)
                      01926     goto pDestination
                      01927 else
                      01928 if (pDestination < ($ - 0X03FF))
                      01929     goto pDestination
                      01930 else
                      01931     bra pDestination
                      01932 endif
                      01933 endif
                      01934 endif
                      01935     endm
                      01936 s@b macro pVarin
                      01937 if ((pVarin > bankA_End) & (pVarin < 0X0F80))
                      01938 if ((pVarin & 0X0F00) != (ram_bank << 8))
                      01939     movlb high (pVarin)
                      01940     ram_bank = (pVarin >> 8)
                      01941 endif
                      01942 endif
                      01943     endm
                      01944 r@b macro
                      01945 if(ram_bank != 0)
                      01946     movlb 0
                      01947     ram_bank = 0
                      01948 endif
                      01949     endm
                      01950 wreg_byte macro pByteOut
                      01951     movff WREG,pByteOut
                      01952     endm
                      01953 wreg_bit macro pVarOut,pBitout
                      01954     s@b pVarOut
                      01955     btfsc WREG,0
                      01956     bsf pVarOut,pBitout
                      01957     btfss WREG,0
                      01958     bcf pVarOut,pBitout
                      01959     r@b
                      01960     endm
                      01961 wreg_word macro pWordOut
                      01962     movff WREG,pWordOut
                      01963     movlw 0
                      01964     movff WREG,pWordOut+1
                      01965     endm
                      01966 wreg_dword macro pDwordOut
                      01967     movff WREG,pDwordOut
                      01968     movlw 0
                      01969     movff WREG,pDwordOut+3
                      01970     movff WREG,pDwordOut+2
                      01971     movff WREG,pDwordOut+1
                      01972     endm
                      01973 num_SFR macro pNumIn,pSFROut
                      01975     movlw pNumIn
                      01976     movwf pSFROut
                      01977     endm
                      01978 NUM16_SFR macro pNumIn,pSFROut
                      01980     movlw (pNumIn & 255)
                      01981     movwf pSFROut
                      01982     movlw ((pNumIn >> 8) & 255)
                      01983     movwf pSFROut + 1
                      01984     endm
                      01985 byte_wreg macro pByteIn
                      01986     movff pByteIn,WREG
                      01987     endm
                      01988 num_wreg macro pNumIn
                      01989     movlw (pNumIn & 255)
                      01990     endm
                      01991 num_byte macro pNumIn,pByteOut
                      01992     movlw (pNumIn & 255)
                      01993     movff WREG,pByteOut
                      01994     endm
                      01995 num_bit macro pNumIn,pVarOut,pBitout
                      01996     s@b pVarOut
                      01997 if((pNumIn & 1) == 1)
                      01998     bsf pVarOut,pBitout
                      01999 else
                      02000     bcf pVarOut,pBitout
                      02001 endif
                      02002     r@b
                      02003     endm
                      02004 num_word macro pNumIn,pWordOut
                      02005 ifdef _USELFSR
                      02006 if(pWordOut == FSR0L)
                      02007     lfsr 0,pNumIn
                      02008     exitm
                      02009 endif
                      02010 if(pWordOut == FSR1L)
                      02011     lfsr 1,pNumIn
                      02012     exitm
                      02013 endif
                      02014 if(pWordOut == FSR2L)
                      02015     lfsr 2,pNumIn
                      02016     exitm
                      02017 endif
                      02018 endif
                      02019     s@b pWordOut
                      02020     movlw (pNumIn & 255)
                      02021     movwf pWordOut
                      02022     s@b pWordOut+1
                      02023     movlw high (pNumIn)
                      02024     movwf pWordOut+1
                      02025     r@b
                      02026     endm
                      02027 num_dword macro pNumIn,pDwordOut
                      02028     s@b pDwordOut
                      02029     movlw low (pNumIn)
                      02030     movwf pDwordOut
                      02031     s@b pDwordOut+1
                      02032     movlw high (pNumIn)
                      02033     movwf pDwordOut+1
                      02034     s@b pDwordOut+2
                      02035     movlw ((pNumIn >> 16) & 255)
                      02036     movwf pDwordOut+2
                      02037     s@b pDwordOut+3
                      02038     movlw ((pNumIn >> 24) & 255)
                      02039     movwf pDwordOut+3
                      02040     r@b
                      02041     endm
                      02042 bit_wreg macro pVarin,pBitIn
                      02043     s@b pVarin
                      02044     clrw
                      02045     btfsc pVarin,pBitIn
                      02046     movlw 1
                      02047     r@b
                      02048     endm
                      02049 bit_byte macro pVarin,pBitIn,pByteOut
                      02050     s@b pVarin
                      02051     clrw
                      02052     btfsc pVarin,pBitIn
                      02053     movlw 1
                      02054     s@b pByteOut
                      02055     movwf pByteOut
                      02056     r@b
                      02057     endm
                      02058 bit_bit macro pVarin,pBitIn,pVarOut,pBitout
                      02059 if ((pVarin & 0X0F00) == (pVarOut & 0X0F00))
                      02060     s@b pVarin
                      02061     btfsc pVarin,pBitIn
                      02062     bsf pVarOut,pBitout
                      02063     btfss pVarin,pBitIn
                      02064     bcf pVarOut,pBitout
                      02065 else
                      02066 if ((pVarin <= bankA_End) | (pVarin >= 0X0F80))
                      02067     s@b pVarOut
                      02068     btfsc pVarin,pBitIn
                      02069     bsf pVarOut,pBitout
                      02070     btfss pVarin,pBitIn
                      02071     bcf pVarOut,pBitout
                      02072 else
                      02073 if ((pVarOut <= bankA_End) | (pVarOut >= 0X0F80))
                      02074     s@b pVarin
                      02075     btfsc pVarin,pBitIn
                      02076     bsf pVarOut,pBitout
                      02077     btfss pVarin,pBitIn
                      02078     bcf pVarOut,pBitout
                      02079 else
                      02080     s@b pVarin
                      02081     clrdc
                      02082     btfsc pVarin,pBitIn
                      02083     setdc
                      02084     s@b pVarOut
                      02085     skpndc
                      02086     bsf pVarOut,pBitout
                      02087     skpdc
                      02088     bcf pVarOut,pBitout
                      02089 endif
                      02090 endif
                      02091 endif
                      02092     r@b
                      02093     endm
                      02094 bit_word macro pVarin,pBitIn,pWordOut
                      02095     s@b pWordOut+1
                      02096     clrf pWordOut+1
                      02097     bit_byte pVarin,pBitIn,pWordOut
                      02098     endm
                      02099 bit_dword macro pVarin,pBitIn,pDwordOut
                      02100     s@b pDwordOut+3
                      02101     clrf pDwordOut+3
                      02102     s@b pDwordOut+2
                      02103     clrf pDwordOut+2
                      02104     s@b pDwordOut+1
                      02105     clrf pDwordOut+1
                      02106     bit_byte pVarin,pBitIn,pDwordOut
                      02107     endm
                      02108 word_wreg macro pWordIn
                      02109     byte_wreg pWordIn
                      02110     endm
                      02111 word_byte macro pWordIn,pByteOut
                      02112     byte_byte pWordIn,pByteOut
                      02113     endm
                      02114 word_bit macro pWordIn,pVarOut,pBitout
                      02115     byte_bit pWordIn, pVarOut, pBitout
                      02116     endm
                      02117 word_word macro pWordIn,pWordOut
                      02118     movff pWordIn+1,pWordOut+1
                      02119     movff pWordIn,pWordOut
                      02120     endm
                      02121 word_dword macro pWordIn,pDwordOut
                      02122     movlw 0
                      02123     movff WREG,pDwordOut+3
                      02124     movff WREG,pDwordOut+2
                      02125     word_word pWordIn,pDwordOut
                      02126     endm
                      02127 byte_byte macro pByteIn,pByteOut
                      02128     movff pByteIn,pByteOut
                      02129     endm
                      02130 byte_word macro pByteIn,pWordOut
                      02131     movlw 0
                      02132     movff WREG,pWordOut+1
                      02133     byte_byte pByteIn,pWordOut
                      02134     endm
                      02135 byte_dword macro pByteIn,pDwordOut
                      02136     movlw 0
                      02137     movff WREG,pDwordOut+3
                      02138     movff WREG,pDwordOut+2
                      02139     movff WREG,pDwordOut+1
                      02140     byte_byte pByteIn,pDwordOut
                      02141     endm
                      02142 byte_bit macro pByteIn,pVarOut,pBitout
                      02143 if ((pByteIn & 0X0F00) == (pVarOut & 0X0F00))
                      02144     s@b pByteIn
                      02145     btfsc pByteIn,0
                      02146     bsf pVarOut,pBitout
                      02147     btfss pByteIn,0
                      02148     bcf pVarOut,pBitout
                      02149 else
                      02150 if ((pByteIn <= bankA_End) | (pByteIn >= 0X0F80))
                      02151     s@b pVarOut
                      02152     btfsc pByteIn,0
                      02153     bsf pVarOut,pBitout
                      02154     btfss pByteIn,0
                      02155     bcf pVarOut,pBitout
                      02156 else
                      02157 if ((pVarOut <= bankA_End) | (pVarOut >= 0X0F80))
                      02158     s@b pByteIn
                      02159     btfsc pByteIn,0
                      02160     bsf pVarOut,pBitout
                      02161     btfss pByteIn,0
                      02162     bcf pVarOut,pBitout
                      02163 else
                      02164     s@b pByteIn
                      02165     rrf pByteIn,W
                      02166     s@b pVarOut
                      02167     skpnc
                      02168     bsf pVarOut,pBitout
                      02169     skpc
                      02170     bcf pVarOut,pBitout
                      02171 endif
                      02172 endif
                      02173 endif
                      02174     r@b
                      02175     endm
                      02176 dword_wreg macro pDwordIn
                      02177     byte_wreg pDwordIn
                      02178     endm
                      02179 dword_byte macro pDwordIn,pByteOut
                      02180     byte_byte pDwordIn,pByteOut
                      02181     endm
                      02182 dword_word macro pDwordIn,pWordOut
                      02183     movff pDwordIn+1,pWordOut+1
                      02184     movff pDwordIn,pWordOut
                      02185     endm
                      02186 dword_dword macro pDwordIn,pDwordOut
                      02187     movff pDwordIn+3,pDwordOut+3
                      02188     movff pDwordIn+2,pDwordOut+2
                      02189     movff pDwordIn+1,pDwordOut+1
                      02190     movff pDwordIn,pDwordOut
                      02191     endm
                      02192 dword_bit macro pDwordIn,pVarOut,pBitout
                      02193     byte_bit pDwordIn,pVarOut,pBitout
                      02194     endm
                      02195 num_float macro pNumIn,pFloatOut
                      02196     num_byte pNumIn,pFloatOut+3
                      02197     num_byte ((pNumIn >> 8) & 255),pFloatOut+2
                      02198     num_byte ((pNumIn >> 16) & 255),pFloatOut+1
                      02199     num_byte ((pNumIn >> 24) & 255),pFloatOut
                      02200     endm
                      02201 wreg_float macro pFloatOut
                      02202     call INT08@TOFL32
                      02203     movff PP_AARG,pFloatOut
                      02204     movff PP_AARGH,pFloatOut+1
                      02205     movff PP_AARGHH,pFloatOut+2
                      02206     movff PP_AARGHHH,pFloatOut+3
                      02207     endm
                      02208 bit_float macro pVarin,pBitIn,pFloatOut
                      02209     bit_wreg pVarin,pBitIn
                      02210     call INT08@TOFL32
                      02211     movff PP_AARG,pFloatOut
                      02212     movff PP_AARGH,pFloatOut+1
                      02213     movff PP_AARGHH,pFloatOut+2
                      02214     movff PP_AARGHHH,pFloatOut+3
                      02215     endm
                      02216 byte_float macro pByteIn,pFloatOut
                      02217     byte_wreg pByteIn
                      02218     call INT08@TOFL32
                      02219     movff PP_AARG,pFloatOut
                      02220     movff PP_AARGH,pFloatOut+1
                      02221     movff PP_AARGHH,pFloatOut+2
                      02222     movff PP_AARGHHH,pFloatOut+3
                      02223     endm
                      02224 word_float macro pWordIn,pFloatOut
                      02225     byte_byte pWordIn,PP_AARG
                      02226     byte_byte pWordIn+1,PP_AARGH
                      02227     call INT16@TOFL32
                      02228     movff PP_AARG,pFloatOut
                      02229     movff PP_AARGH,pFloatOut+1
                      02230     movff PP_AARGHH,pFloatOut+2
                      02231     movff PP_AARGHHH,pFloatOut+3
                      02232     endm
                      02233 dword_float macro pDwordIn,pFloatOut
                      02234     movff pDwordIn,PP_AARG
                      02235     movff pDwordIn+1,PP_AARGH
                      02236     movff pDwordIn+2,PP_AARGHH
                      02237     movff pDwordIn+3,PP_AARGHHH
                      02238     call INT32@TOFL32
                      02239     movff PP_AARG,pFloatOut
                      02240     movff PP_AARGH,pFloatOut+1
                      02241     movff PP_AARGHH,pFloatOut+2
                      02242     movff PP_AARGHHH,pFloatOut+3
                      02243     endm
                      02244 float_float macro pFloatIn,pFloatOut
                      02245     movff pFloatIn,pFloatOut
                      02246     movff pFloatIn+1,pFloatOut+1
                      02247     movff pFloatIn+2,pFloatOut+2
                      02248     movff pFloatIn+3,pFloatOut+3
                      02249     endm
                      02250 float_wreg macro pFloatIn
                      02251     float_float pFloatIn,PP_AARG
                      02252     call FL32@TOINT32
                      02253     endm
                      02254 float_bit macro pFloatIn,pVarOut,pBitout
                      02255     float_float pFloatIn,PP_AARG
                      02256     call FL32@TOINT32
                      02257     wreg_bit pVarOut,pBitout
                      02258     endm
                      02259 float_byte macro pFloatIn,pByteOut
                      02260     float_float pFloatIn,PP_AARG
                      02261     call FL32@TOINT32
                      02262     wreg_byte pByteOut
                      02263     endm
                      02264 float_word macro pFloatIn,pWordOut
                      02265     float_float pFloatIn,PP_AARG
                      02266     call FL32@TOINT32
                      02267     movff PP_AARGHHH,pWordOut
                      02268     movff PP_AARGHH,pWordOut+1
                      02269     endm
                      02270 float_dword macro pFloatIn,pDwordOut
                      02271     float_float pFloatIn,PP_AARG
                      02272     call FL32@TOINT32
                      02273     movff PP_AARGHHH,pDwordOut
                      02274     movff PP_AARGHH,pDwordOut+1
                      02275     movff PP_AARGH,pDwordOut+2
                      02276     movff PP_AARG,pDwordOut+3
                      02277     endm
                      02278 num_FSR0 macro pNumIn
                      02279     lfsr 0,pNumIn
                      02280     endm
                      02281 num_FSR1 macro pNumIn
                      02282     lfsr 1,pNumIn
                      02283     endm
                      02284 num_FSR2 macro pNumIn
                      02285     lfsr 2,pNumIn
                      02286     endm
                      02287 label_word macro pLabelIn,pWordOut
                      02288     movlw (pLabelIn & 255)
                      02289     movff WREG, pWordOut
                      02290     movlw ((pLabelIn >> 8) & 255)
                      02291     movff WREG, pWordOut+1
                      02292     endm
                      02293 label_pointer macro pLabelIn
                      02294     movlw (pLabelIn & 255)
                      02295     movwf TBLPTRL
                      02296     movlw ((pLabelIn >> 8) & 255)
                      02297     movwf TBLPTRH
                      02298     movlw ((pLabelIn >> 16) & 255)
                      02299     movwf TBLPTRU
                      02300     endm
                      02301 wreg_sword macro pWordOut
                      02302     movff WREG,pWordOut
                      02303     s@b pWordOut+1
                      02304     clrf pWordOut+1
                      02305     btfsc WREG,7
                      02306     decf pWordOut+1,F
                      02307     r@b
                      02308     endm
                      02309 wreg_sdword macro pDwordOut
                      02310     movff WREG,pDwordOut
                      02311     s@b pDwordOut
                      02312     movlw 0
                      02313     btfsc pDwordOut,7
                      02314     movlw 255
                      02315     movff WREG,pDwordOut+1
                      02316     movff WREG,pDwordOut+2
                      02317     movff WREG,pDwordOut+3
                      02318     r@b
                      02319     endm
                      02320 byte_sword macro pByteIn,pWordOut
                      02321     movff pByteIn,pWordOut
                      02322     s@b pByteIn
                      02323     movlw 0
                      02324     btfsc pByteIn,7
                      02325     movlw 255
                      02326     movff WREG,pWordOut+1
                      02327     r@b
                      02328     endm
                      02329 byte_sdword macro pByteIn,pDwordOut
                      02330     movff pByteIn,pDwordOut
                      02331     s@b pByteIn
                      02332     movlw 0
                      02333     btfsc pByteIn,7
                      02334     movlw 255
                      02335     movff WREG,pDwordOut+1
                      02336     movff WREG,pDwordOut+2
                      02337     movff WREG,pDwordOut+3
                      02338     r@b
                      02339     endm
                      02340 word_sdword macro pWordIn,pDwordOut
                      02341     movff pWordIn,pDwordOut
                      02342     movff pWordIn+1,pDwordOut+1
                      02343     s@b pWordIn+1
                      02344     movlw 0
                      02345     btfsc pWordIn+1,7
                      02346     movlw 255
                      02347     movff WREG,pDwordOut+2
                      02348     movff WREG,pDwordOut+3
                      02349     r@b
                      02350     endm
  00000000            02352 BPF = 0
  00000001            02353 GEN = 1
  00000002            02354 GEN2 = 2
  00000003            02355 GEN2H = 3
  00000004            02356 GENH = 4
  00000005            02357 GPR = 5
  00000006            02358 PBP#VAR0 = 6
  00000007            02359 PBP#VAR0H = 7
  00000008            02360 PBP#VAR0HH = 8
  00000009            02361 PBP#VAR0HHH = 9
  0000000A            02362 PBP#VAR1 = 10
  0000000B            02363 PBP#VAR2 = 11
  0000000C            02364 PBP#VAR2H = 12
  0000000D            02365 PP0 = 13
  0000000E            02366 PP0H = 14
  0000000F            02367 PP1 = 15
  00000010            02368 PP1H = 16
  00000011            02369 PP2 = 17
  00000012            02370 PP2H = 18
  00000013            02371 PP3 = 19
  00000014            02372 PP3H = 20
  00000015            02373 PP4 = 21
  00000016            02374 PP4H = 22
  00000017            02375 PP5 = 23
  00000018            02376 PP7 = 24
  00000019            02377 PP7H = 25
  0000001A            02378 SP#P9 = 26
  0000001B            02379 TRANSPONDER_MODE = 27
  0000001C            02380 TR_MD = 28
  0000001D            02381 FREK1 = 29
  0000001E            02382 FREK1H = 30
  0000001F            02383 FREK2 = 31
  00000020            02384 FREK2H = 32
  00000021            02385 STP = 33
  00000022            02386 STPH = 34
  00000023            02387 REF = 35
  00000024            02388 REFH = 36
  00000025            02389 _A = 37
  00000026            02390 _AH = 38
  00000027            02391 _N = 39
  00000028            02392 _NH = 40
  00000029            02393 _R = 41
  0000002A            02394 _RH = 42
  0000002B            02395 _X = 43
  0000002C            02396 _XH = 44
  0000002D            02397 PRE = 45
  0000002E            02398 PRE2 = 46
  0000002F            02399 DataOut = 47
  00000030            02400 DataOutH = 48
  00000031            02401 DataOutHH = 49
  00000032            02402 DataOutHHH = 50
  00000033            02403 sayac = 51
  00000034            02404 SaniyeBekle = 52
  00000035            02405 TPS_Akim = 53
  00000036            02406 TPS_AkimH = 54
  00000037            02407 Pwm_val = 55
  00000038            02408 Cikis_Gucu = 56
  00000039            02409 Cikis_GucuH = 57
  0000003A            02410 uS = 58
  0000003B            02411 uSH = 59
  0000003C            02412 mS = 60
  0000003D            02413 mSH = 61
  0000003E            02414 _S = 62
  0000003F            02415 _SH = 63
  00000040            02416 mn = 64
  00000041            02417 hr = 65
  00000042            02418 dy = 66
  00000043            02419 DataIn = 67
  00000044            02420 LastData = 68
  00000045            02421 STATE_INFO = 69
  00000046            02422 RESPONSE = 70
  00000047            02423 DURUM = 71
  00000048            02424 _B#VR1 = 72
  00000049            02425 DutyCycle = 73
  0000004A            02426 Reset_Count = 74
  0000004B            02427 Reset_CountH = 75
  0000004C            02428 EPS_ADCVal = 76
  0000004D            02429 EPS_ADCValH = 77
  004C                02430 variable EPS_ADCVal#0=76,EPS_ADCVal#0H=77,EPS_ADCVal#1=78,EPS_ADCVal#1H=79
  0050                02431 variable EPS_ADCVal#2=80,EPS_ADCVal#2H=81,EPS_ADCVal#3=82,EPS_ADCVal#3H=83
  0054                02432 variable EPS_ADCVal#4=84,EPS_ADCVal#4H=85,EPS_ADCVal#5=86,EPS_ADCVal#5H=87
  0058                02433 variable EPS_ADCVal#6=88,EPS_ADCVal#6H=89,EPS_ADCVal#7=90,EPS_ADCVal#7H=91
  005C                02434 variable EPS_ADCVal#8=92,EPS_ADCVal#8H=93,EPS_ADCVal#9=94,EPS_ADCVal#9H=95
  0060                02435 variable EPS_ADCVal#10=96,EPS_ADCVal#10H=97,EPS_ADCVal#11=98,EPS_ADCVal#11H=99
  0064                02436 variable EPS_ADCVal#12=100,EPS_ADCVal#12H=101,EPS_ADCVal#13=102,EPS_ADCVal#13H=103
  0068                02437 variable EPS_ADCVal#14=104,EPS_ADCVal#14H=105,EPS_ADCVal#15=106,EPS_ADCVal#15H=107
  006C                02438 variable EPS_ADCVal#16=108,EPS_ADCVal#16H=109,EPS_ADCVal#17=110,EPS_ADCVal#17H=111
  0070                02439 variable EPS_ADCVal#18=112,EPS_ADCVal#18H=113,EPS_ADCVal#19=114,EPS_ADCVal#19H=115
  0074                02440 variable EPS_ADCVal#20=116,EPS_ADCVal#20H=117,EPS_ADCVal#21=118,EPS_ADCVal#21H=119
  0078                02441 variable EPS_ADCVal#22=120,EPS_ADCVal#22H=121,EPS_ADCVal#23=122,EPS_ADCVal#23H=123
  007C                02442 variable EPS_ADCVal#24=124,EPS_ADCVal#24H=125,EPS_ADCVal#25=126,EPS_ADCVal#25H=127
  0080                02443 variable EPS_ADCVal#26=128,EPS_ADCVal#26H=129,EPS_ADCVal#27=130,EPS_ADCVal#27H=131
  0084                02444 variable EPS_ADCVal#28=132,EPS_ADCVal#28H=133,EPS_ADCVal#29=134,EPS_ADCVal#29H=135
  0088                02445 variable EPS_ADCVal#30=136,EPS_ADCVal#30H=137,EPS_ADCVal#31=138,EPS_ADCVal#31H=139
  0000008C            02446 EPS_ADCValByte = 140
  008C                02447 variable EPS_ADCValByte#0=140,EPS_ADCValByte#1=141,EPS_ADCValByte#2=142,EPS_ADCValByte#3=143
  0090                02448 variable EPS_ADCValByte#4=144,EPS_ADCValByte#5=145,EPS_ADCValByte#6=146,EPS_ADCValByte#7=147
  0094                02449 variable EPS_ADCValByte#8=148,EPS_ADCValByte#9=149,EPS_ADCValByte#10=150,EPS_ADCValByte#11=151
  0098                02450 variable EPS_ADCValByte#12=152,EPS_ADCValByte#13=153,EPS_ADCValByte#14=154,EPS_ADCValByte#15=155
  009C                02451 variable EPS_ADCValByte#16=156,EPS_ADCValByte#17=157,EPS_ADCValByte#18=158,EPS_ADCValByte#19=159
  00A0                02452 variable EPS_ADCValByte#20=160,EPS_ADCValByte#21=161,EPS_ADCValByte#22=162,EPS_ADCValByte#23=163
  00A4                02453 variable EPS_ADCValByte#24=164,EPS_ADCValByte#25=165,EPS_ADCValByte#26=166,EPS_ADCValByte#27=167
  00A8                02454 variable EPS_ADCValByte#28=168,EPS_ADCValByte#29=169,EPS_ADCValByte#30=170,EPS_ADCValByte#31=171
  00AC                02455 variable EPS_ADCValByte#32=172,EPS_ADCValByte#33=173,EPS_ADCValByte#34=174,EPS_ADCValByte#35=175
  00B0                02456 variable EPS_ADCValByte#36=176,EPS_ADCValByte#37=177,EPS_ADCValByte#38=178,EPS_ADCValByte#39=179
  00B4                02457 variable EPS_ADCValByte#40=180,EPS_ADCValByte#41=181,EPS_ADCValByte#42=182,EPS_ADCValByte#43=183
  00B8                02458 variable EPS_ADCValByte#44=184,EPS_ADCValByte#45=185,EPS_ADCValByte#46=186,EPS_ADCValByte#47=187
  00BC                02459 variable EPS_ADCValByte#48=188,EPS_ADCValByte#49=189,EPS_ADCValByte#50=190,EPS_ADCValByte#51=191
  00C0                02460 variable EPS_ADCValByte#52=192,EPS_ADCValByte#53=193,EPS_ADCValByte#54=194,EPS_ADCValByte#55=195
  00C4                02461 variable EPS_ADCValByte#56=196,EPS_ADCValByte#57=197,EPS_ADCValByte#58=198,EPS_ADCValByte#59=199
  00C8                02462 variable EPS_ADCValByte#60=200,EPS_ADCValByte#61=201,EPS_ADCValByte#62=202,EPS_ADCValByte#63=203
  000000CC            02463 BAT_ADCVal = 204
  000000CD            02464 BAT_ADCValH = 205
  00CC                02465 variable BAT_ADCVal#0=204,BAT_ADCVal#0H=205,BAT_ADCVal#1=206,BAT_ADCVal#1H=207
  00D0                02466 variable BAT_ADCVal#2=208,BAT_ADCVal#2H=209,BAT_ADCVal#3=210,BAT_ADCVal#3H=211
  00D4                02467 variable BAT_ADCVal#4=212,BAT_ADCVal#4H=213,BAT_ADCVal#5=214,BAT_ADCVal#5H=215
  00D8                02468 variable BAT_ADCVal#6=216,BAT_ADCVal#6H=217,BAT_ADCVal#7=218,BAT_ADCVal#7H=219
  00DC                02469 variable BAT_ADCVal#8=220,BAT_ADCVal#8H=221,BAT_ADCVal#9=222,BAT_ADCVal#9H=223
  00E0                02470 variable BAT_ADCVal#10=224,BAT_ADCVal#10H=225,BAT_ADCVal#11=226,BAT_ADCVal#11H=227
  00E4                02471 variable BAT_ADCVal#12=228,BAT_ADCVal#12H=229,BAT_ADCVal#13=230,BAT_ADCVal#13H=231
  00E8                02472 variable BAT_ADCVal#14=232,BAT_ADCVal#14H=233,BAT_ADCVal#15=234,BAT_ADCVal#15H=235
  000000EC            02473 dummy = 236
  000000ED            02474 Versiyon = 237
  000000EE            02475 EPSstatus = 238
  000000EF            02476 BATVersiyon = 239
  000000F0            02477 BATstatus1 = 240
  000000F1            02478 BATstatus2 = 241
  000000F2            02479 DTMFstat = 242
  000000F3            02480 DTMFbatt = 243
  00F3                02481 variable DTMFbatt#0=243,DTMFbatt#1=244
  000000F5            02482 DTMF = 245
  00F5                02483 variable DTMF#0=245,DTMF#1=246,DTMF#2=247,DTMF#3=248
  00F9                02484 variable DTMF#4=249,DTMF#5=250,DTMF#6=251,DTMF#7=252
  00FD                02485 variable DTMF#8=253,DTMF#9=254,DTMF#10=255,DTMF#11=256
  00000101            02486 dongusay = 257
  00000102            02487 ADCsay = 258
  00000103            02488 _High__Context_Store = 259
  0103                02489 variable _High__Context_Store#0=259
                      02490 #define __CCP1_PIN PORTC,2
                      02491 #define __CCP2_PIN PORTC,7
                      02492 #define AGC8317in PORTA,1
                      02493 #define ACS714_5V PORTA,2
                      02494 #define pllLD PORTA,3
                      02495 #define TPS2421en PORTA,4
                      02496 #define PWRled PORTA,5
                      02497 #define mySCL2 PORTB,1
                      02498 #define mySDA2 PORTB,2
                      02499 #define pllCLK PORTB,3
                      02500 #define pllDATA PORTB,4
                      02501 #define pllLE PORTB,5
                      02502 #define pllPSRF PORTB,6
                      02503 #define pllPSIF PORTB,7
                      02504 #define LD29300enable PORTC,0
                      02505 #define TPS3823WDI PORTC,1
                      02506 #define AD8317AGCset PORTC,2
                      02507 #define mySCL1 PORTC,3
                      02508 #define mySDA1 PORTC,4
                      02509 #define AD8317final PORTC,7
                      02510 #define GIE INTCON,7
                      02511 #define Timer1 TMR1L
                      02512 #define Timer1H TMR1LH
                      02513 #define TMR1_Enable PIE1,0
                      02514 #define TMR1_Overflow PIR1,0
                      02515 #define TMR1_On T1CON,0
                      02516 #define SSPIF PIR1,3
                      02517 #define SSPIP IPR1,3
                      02518 #define SSPIE PIE1,3
                      02519 #define BF SSPSTAT,0
                      02520 #define R_W SSPSTAT,2
                      02521 #define D_A SSPSTAT,5
                      02522 #define CKP SSPCON1,4
                      02523 #define SSPEN SSPCON1,5
                      02524 #define SSPOV SSPCON1,6
                      02525 #define WCOL SSPCON1,7
                      02526 #define SMP SSPSTAT,7
                      02527 #define SEN SSP1CON2,0
                      02528 #define AHEN SSP1CON3,1
                      02529 #define PEIE INTCON,6
                      02530 #define pllyaz_latch _B#VR1,0
                      02531 #define __XTAL 4
                      02532 #define UZAY 0
                      02533 #define LAB 1
                      02534 #define SA 3
                      02535 #define TR_ON 1
                      02536 #define TR_OFF 2
                      02537 #define TMR1_Val 64536
                      02538 #define TMR1_ValH 252
                      02539 #define TMR1_mS 1
000000                02540 proton#code#start
000000                02541         org 0
000000 EF26 F001      02542         goto proton#main#start
000008                02543         org 8
000008 EF68 F001      02544         goto InterruptSection
00000C                02545 __HPWM_
00000C 6E16           02546         movwf 22,0
00000E 0E42           02547         movlw 66
000010 6E0D           02548         movwf 13,0
000012 0E0F           02549         movlw 15
000014 6E0E           02550         movwf 14,0
000016 ECFF F000      02551         call __DIVIDE_U1616_
00001A B4D8           02552         btfsc 4056,2,0
00001C 90BA           02553         bcf 4026,PP_T2CKPS0,0
00001E A4D8           02554         btfss 4056,2,0
000020 80BA           02555         bsf 4026,PP_T2CKPS0,0
000022 0FFC           02556         addlw 252
000024 A0D8           02557         btfss 4056,0,0
000026 92BA           02558         bcf 4026,PP_T2CKPS1,0
000028 B0D8           02559         btfsc 4056,0,0
00002A 82BA           02560         bsf 4026,PP_T2CKPS1,0
00002C 0E40           02561         movlw 64
00002E 6E0D           02562         movwf 13,0
000030 0E42           02563         movlw 66
000032 6E0E           02564         movwf 14,0
000034 0E0F           02565         movlw 15
000036 6E11           02566         movwf 17,0
000038 6A12           02567         clrf 18,0
00003A B0BA           02568         btfsc 4026,PP_T2CKPS0,0
00003C D827           02569         rcall HPW@2S
00003E B2BA           02570         btfsc 4026,PP_T2CKPS1,0
000040 D825           02571         rcall HPW@2S
000042 EC01 F001      02572         call __DIVIDE_INT_U1616_
000046 040D           02573         decf 13,W,0
000048 6EBB           02574         movwf 4027,0
00004A C00D F00F      02575         movff 13,15
00004E C00E F010      02576         movff 14,16
000052 5001           02577         movf 1,W,0
000054 6E13           02578         movwf 19,0
000056 6E14           02579         movwf 20,0
000058 3C01           02580         incfsz 1,W,0
00005A 6A14           02581         clrf 20,0
00005C EC16 F001      02582         call __MULTIPLY_U1616_
000060 5012           02583         movf 18,W,0
000062 2E16           02584         decfsz 22,F,0
000064 D00A           02585         bra HPW@SK1
000066 6EBE           02586         movwf 4030,0
000068 0E0C           02587         movlw 12
00006A 6EBD           02588         movwf 4029,0
00006C BE11           02589         btfsc 17,7,0
00006E 8ABD           02590         bsf 4029,5,0
000070 BC11           02591         btfsc 17,6,0
000072 88BD           02592         bsf 4029,4,0
000074 9494           02593         bcf TRISC,2,0
000076                02594 HPWM@FIN
000076 84BA           02595         bsf 4026,PP_TMR2ON,0
000078 0012           02596         return
00007A                02597 HPW@SK1
00007A 6E67           02598         movwf 3943,0
00007C 0E0C           02599         movlw 12
00007E 6E66           02600         movwf 3942,0
000080 BE11           02601         btfsc 17,7,0
000082 8A66           02602         bsf 3942,5,0
000084 BC11           02603         btfsc 17,6,0
000086 8866           02604         bsf 3942,4,0
000088 9E94           02605         bcf TRISC,7,0
00008A D7F5           02606         bra HPWM@FIN
00008C                02607 HPW@2S
00008C D800           02608         rcall HPW@2L
00008E                02609 HPW@2L
00008E 90D8           02610         bcf 4056,0,0
000090 3211           02611         rrcf 17,F,0
000092 320E           02612         rrcf 14,F,0
000094 320D           02613         rrcf 13,F,0
000096 0012           02614         return
000098                02615 I2CIN2
000098 8800           02616         bsf 0,4,0
00009A A800           02617         btfss 0,4,0
00009C                02618 I2CIN
00009C 9800           02619         bcf 0,4,0
00009E BA00           02620         btfsc 0,5,0
0000A0 D003           02621         bra I2CIN@I
0000A2 8A00           02622         bsf 0,5,0
0000A4 D83C           02623         rcall I2C@STT
0000A6 E225           02624         bc I2C@STP
0000A8                02625 I2CIN@I
0000A8 0E08           02626         movlw 8
0000AA 6E10           02627         movwf 16,0
0000AC                02628 I2CIN@LP
0000AC D84C           02629         rcall I2C@GB
0000AE 360F           02630         rlcf 15,F,0
0000B0 2E10           02631         decfsz 16,F,0
0000B2 D7FC           02632         bra I2CIN@LP
0000B4 A800           02633         btfss 0,4,0
0000B6 D82B           02634         rcall I2C@DL
0000B8 D852           02635         rcall I2C@CH
0000BA D84C           02636         rcall I2C@CL
0000BC B800           02637         btfsc 0,4,0
0000BE D819           02638         rcall I2C@STP
0000C0 D81F           02639         rcall I2C@DH
0000C2 500F           02640         movf 15,W,0
0000C4 90D8           02641         bcf 4056,0,0
0000C6 0012           02642         return
0000C8                02643 I2COUT2
0000C8 8800           02644         bsf 0,4,0
0000CA A800           02645         btfss 0,4,0
0000CC                02646 I2COUT
0000CC 9800           02647         bcf 0,4,0
0000CE BC00           02648         btfsc 0,6,0
0000D0 D005           02649         bra I2C@OUTC
0000D2 0BFE           02650         andlw 254
0000D4 6E05           02651         movwf 5,0
0000D6 8C00           02652         bsf 0,6,0
0000D8 90D8           02653         bcf 4056,0,0
0000DA 0012           02654         return
0000DC                02655 I2C@OUTC
0000DC BE00           02656         btfsc 0,7,0
0000DE D005           02657         bra I2COUT@I
0000E0 6E13           02658         movwf 19,0
0000E2 8E00           02659         bsf 0,7,0
0000E4 D81C           02660         rcall I2C@STT
0000E6 E205           02661         bc I2C@STP
0000E8 5013           02662         movf 19,W,0
0000EA                02663 I2COUT@I
0000EA D820           02664         rcall I2C@OB
0000EC E202           02665         bc I2C@STP
0000EE A800           02666         btfss 0,4,0
0000F0 0012           02667         return
0000F2                02668 I2C@STP
0000F2 D80D           02669         rcall I2C@DL
0000F4 D834           02670         rcall I2C@CH
0000F6 9C00           02671         bcf 0,6,0
0000F8 9E00           02672         bcf 0,7,0
0000FA 9A00           02673         bcf 0,5,0
0000FC D801           02674         rcall I2C@DH
0000FE 0012           02675         return
000100                02676 I2C@DH
000100 68E2           02677         setf 4066,0
000102 3C01           02678         incfsz 1,W,0
000104 6EE1           02679         movwf 4065,0
000106 88E1           02680         bsf 4065,4,0
000108 5004           02681         movf 4,W,0
00010A                02682 I2C@HH
00010A 12E4           02683         iorwf 4068,F,0
00010C D007           02684         bra I2C@LH
00010E                02685 I2C@DL
00010E 68E2           02686         setf 4066,0
000110 C001 FFE1      02687         movff 1,4065
000114 1C04           02688         comf 4,W,0
000116                02689 I2C@WL
000116 16E6           02690         andwf 4070,F,0
000118 88E1           02691         bsf 4065,4,0
00011A 16E4           02692         andwf 4068,F,0
00011C                02693 I2C@LH
00011C 0012           02694         return
00011E                02695 I2C@STT
00011E DFF0           02696         rcall I2C@DH
000120 D81E           02697         rcall I2C@CH
000122 DFF5           02698         rcall I2C@DL
000124 D817           02699         rcall I2C@CL
000126 5005           02700         movf 5,W,0
000128 BA00           02701         btfsc 0,5,0
00012A 0901           02702         iorlw 1
00012C                02703 I2C@OB
00012C 6E0F           02704         movwf 15,0
00012E 0E08           02705         movlw 8
000130 6E10           02706         movwf 16,0
000132                02707 I2COUT@LP
000132 360F           02708         rlcf 15,F,0
000134 B0D8           02709         btfsc 4056,0,0
000136 DFE4           02710         rcall I2C@DH
000138 A0D8           02711         btfss 4056,0,0
00013A DFE9           02712         rcall I2C@DL
00013C D810           02713         rcall I2C@CH
00013E D80A           02714         rcall I2C@CL
000140 2E10           02715         decfsz 16,F,0
000142 D7F7           02716         bra I2COUT@LP
000144 DFDD           02717         rcall I2C@DH
000146                02718 I2C@GB
000146 D80B           02719         rcall I2C@CH
000148 68E2           02720         setf 4066,0
00014A C001 FFE1      02721         movff 1,4065
00014E 5004           02722         movf 4,W,0
000150 14E7           02723         andwf 4071,W,0
000152 0FFF           02724         addlw 255
000154                02725 I2C@CL
000154 68E2           02726         setf 4066,0
000156 C002 FFE1      02727         movff 2,4065
00015A 1C03           02728         comf 3,W,0
00015C D7DC           02729         bra I2C@WL
00015E                02730 I2C@CH
00015E 68E2           02731         setf 4066,0
000160                02732 I2C@HD
000160 3C02           02733         incfsz 2,W,0
000162 6EE1           02734         movwf 4065,0
000164 88E1           02735         bsf 4065,4,0
000166 5003           02736         movf 3,W,0
000168 D7D0           02737         bra I2C@HH
00016A                02738 __EEREAD_
00016A 6EA9           02739         movwf EEADR,0
00016C                02740 __EEREAD_W_
00016C 6AA6           02741         clrf EECON1,0
00016E 80A6           02742         bsf EECON1,PP_RD,0
000170 50A8           02743         movf EEDATA,W,0
000172 2AA9           02744         incf EEADR,F,0
000174 0012           02745         return
000176                02746 __EEWRITE_
000176                02747 __EEWRITE_W_
000176 6EA8           02748         movwf EEDATA,0
000178 6AA6           02749         clrf EECON1,0
00017A 84A6           02750         bsf EECON1,PP_WREN,0
00017C 0E55           02751         movlw 85
00017E 6EA7           02752         movwf EECON2,0
000180 0EAA           02753         movlw 170
000182 6EA7           02754         movwf EECON2,0
000184 82A6           02755         bsf EECON1,PP_WR,0
000186 B2A6           02756         btfsc EECON1,PP_WR,0
000188 D7FE           02757         bra $ - 2
00018A 94A6           02758         bcf EECON1,PP_WREN,0
00018C 2AA9           02759         incf EEADR,F,0
00018E 0012           02760         return
  00000032            02761 ADIN_STIME = 50
  00000003            02762 ADIN_TAD = 3
  0000000A            02763 ADIN_REQ = 10
000190                02764 __ADIN_
000190 36E8           02765         rlcf 4072,F,0
000192 36E8           02766         rlcf 4072,F,0
000194 0BFC           02767         andlw 252
000196 0901           02768         iorlw 1
000198 12C2           02769         iorwf 4034,F,0
00019A 09C0           02770         iorlw 192
00019C 16C2           02771         andwf 4034,F,0
00019E 50C0           02772         movf 4032,W,0
0001A0 0BF8           02773         andlw 248
0001A2 0903           02774         iorlw 3
0001A4 6EC0           02775         movwf 4032,0
0001A6 0E32           02776         movlw 50
0001A8 ECEB F000      02777         call __DELAY_US_
0001AC 82C2           02778         bsf 4034,PP_GO_DONE,0
0001AE B2C2           02779         btfsc 4034,PP_GO_DONE,0
0001B0 D7FE           02780         bra $ - 2
0001B2 CFC4 F019      02781         movff 4036,25
0001B6 50C3           02782         movf 4035,W,0
0001B8 6E18           02783         movwf 24,0
0001BA 0012           02784         return
0001BC                02785 __DELAY_MS_
0001BC 6A10           02786         clrf 16,0
0001BE                02787 __DELAY_MS_W_
0001BE 6E0F           02788         movwf 15,0
0001C0                02789 DLY@P
0001C0 0EFF           02790         movlw 255
0001C2 260F           02791         addwf 15,F,0
0001C4 2210           02792         addwfc 16,F,0
0001C6 D000           02793         bra $ + 2
0001C8 A0D8           02794         btfss 4056,0,0
0001CA 0012           02795         return
0001CC 0E03           02796         movlw 3
0001CE 6E0E           02797         movwf 14,0
0001D0 0EDE           02798         movlw 222
0001D2 D802           02799         rcall __DELAY_US_W_
0001D4 D7F5           02800         bra DLY@P
0001D6                02801 __DELAY_US_
0001D6 6A0E           02802         clrf 14,0
0001D8                02803 __DELAY_US_W_
0001D8 0FE9           02804         addlw 233
0001DA 6E0D           02805         movwf 13,0
0001DC 0EFC           02806         movlw 252
0001DE E305           02807         bnc $ + 12
0001E0 0000           02808         nop
0001E2 0000           02809         nop
0001E4 260D           02810         addwf 13,F,0
0001E6 E2FD           02811         bc $ - 4
0001E8 0000           02812         nop
0001EA 260D           02813         addwf 13,F,0
0001EC 060E           02814         decf 14,F,0
0001EE E2F9           02815         bc $ - 12
0001F0 B00D           02816         btfsc 13,0,0
0001F2 D000           02817         bra $ + 2
0001F4 A20D           02818         btfss 13,1,0
0001F6 D002           02819         bra $ + 6
0001F8 D000           02820         bra $ + 2
0001FA 0000           02821         nop
0001FC 0012           02822         return
0001FE                02823 __DIVIDE_U1616_
0001FE 6A12           02824         clrf 18,0
000200 6A11           02825         clrf 17,0
000202                02826 __DIVIDE_INT_U1616_
000202 0E10           02827         movlw 16
000204 6EF3           02828         movwf 4083,0
000206                02829 DV@LP
000206 340E           02830         rlcf 14,W,0
000208 3611           02831         rlcf 17,F,0
00020A 3612           02832         rlcf 18,F,0
00020C 500F           02833         movf 15,W,0
00020E 5C11           02834         subwf 17,W,0
000210 5010           02835         movf 16,W,0
000212 5812           02836         subwfb 18,W,0
000214 E305           02837         bnc D@K
000216 500F           02838         movf 15,W,0
000218 5E11           02839         subwf 17,F,0
00021A 5010           02840         movf 16,W,0
00021C 5A12           02841         subwfb 18,F,0
00021E 80D8           02842         bsf 4056,0,0
000220                02843 D@K
000220 360D           02844         rlcf 13,F,0
000222 360E           02845         rlcf 14,F,0
000224 2EF3           02846         decfsz 4083,F,0
000226 D7EF           02847         bra DV@LP
000228 500D           02848         movf 13,W,0
00022A 0012           02849         return
00022C                02850 __MULTIPLY_U1616_
00022C 500F           02851         movf 15,W,0
00022E 0213           02852         mulwf 19,0
000230 CFF3 F011      02853         movff 4083,17
000234 CFF4 F012      02854         movff 4084,18
000238 5010           02855         movf 16,W,0
00023A 0213           02856         mulwf 19,0
00023C 50F3           02857         movf 4083,W,0
00023E 2612           02858         addwf 18,F,0
000240 500F           02859         movf 15,W,0
000242 0214           02860         mulwf 20,0
000244 50F3           02861         movf 4083,W,0
000246 2612           02862         addwf 18,F,0
000248 5011           02863         movf 17,W,0
00024A 0012           02864         return
00024C                02865 proton#main#start
00024C 6A00           02866         clrf 0,0
00024E 0100           02867         movlb 0
  00000250            02869 F2_SOF equ $ ; TRANSPONDER_MASTER_V2.PRP
  00000250            02870 F2_EOF equ $ ; TRANSPONDER_MASTER_V2.PRP
  00000250            02871 F1_SOF equ $ ; TRANSPONDER_MASTER_V2.BAS
  00000250            02872 F1_000051 equ $ ; IN [TRANSPONDER_MASTER_V2.BAS] TRANSPONDER_MODE = UZAY
000250 6A1B           02873         clrf TRANSPONDER_MODE,0
  00000252            02874 F1_000057 equ $ ; IN [TRANSPONDER_MASTER_V2.BAS] TR_MD = TR_OFF
000252 0E02           02875         movlw 2
000254 6E1C           02876         movwf TR_MD,0
  00000256            02877 F1_000060 equ $ ; IN [TRANSPONDER_MASTER_V2.BAS] ALL_DIGITAL   = TRUE
000256 6A79           02878         clrf CM1CON0,0
000258 6A78           02879         clrf CM2CON0,0
00025A 6A79           02880         clrf CM1CON,0
00025C 6A78           02881         clrf CM2CON,0
00025E 0E0F           02882         movlw 15
000260 6EC1           02883         movwf ADCON1,0
000262 010F           02884         movlb 15
  0000000F            02885 ram_bank = 15
000264 6B38           02886         clrf ANSELA,1
000266 6B39           02887         clrf ANSELB,1
000268 6B3A           02888         clrf ANSELC,1
  0000026A            02889 F1_000071 equ $ ; IN [TRANSPONDER_MASTER_V2.BAS] TRISA.0 = 1
00026A 8092           02890         bsf TRISA,0,0
  0000026C            02891 F1_000072 equ $ ; IN [TRANSPONDER_MASTER_V2.BAS] TRISA.1 = 1
00026C 8292           02892         bsf TRISA,1,0
  0000026E            02893 F1_000073 equ $ ; IN [TRANSPONDER_MASTER_V2.BAS] TRISA.2 = 1
00026E 8492           02894         bsf TRISA,2,0
  00000270            02895 F1_000074 equ $ ; IN [TRANSPONDER_MASTER_V2.BAS] TRISA.3 = 1
000270 8692           02896         bsf TRISA,3,0
  00000272            02897 F1_000075 equ $ ; IN [TRANSPONDER_MASTER_V2.BAS] TRISA.4 = 0
000272 9892           02898         bcf TRISA,4,0
  00000274            02899 F1_000076 equ $ ; IN [TRANSPONDER_MASTER_V2.BAS] TRISA.5 = 0
000274 9A92           02900         bcf TRISA,5,0
  00000276            02901 F1_000078 equ $ ; IN [TRANSPONDER_MASTER_V2.BAS] TRISB.0 = 1
000276 8093           02902         bsf TRISB,0,0
  00000278            02903 F1_000079 equ $ ; IN [TRANSPONDER_MASTER_V2.BAS] TRISB.1 = 1
000278 8293           02904         bsf TRISB,1,0
  0000027A            02905 F1_000080 equ $ ; IN [TRANSPONDER_MASTER_V2.BAS] TRISB.2 = 1
00027A 8493           02906         bsf TRISB,2,0
  0000027C            02907 F1_000081 equ $ ; IN [TRANSPONDER_MASTER_V2.BAS] TRISB.3 = 0
00027C 9693           02908         bcf TRISB,3,0
  0000027E            02909 F1_000082 equ $ ; IN [TRANSPONDER_MASTER_V2.BAS] TRISB.4 = 0
00027E 9893           02910         bcf TRISB,4,0
  00000280            02911 F1_000083 equ $ ; IN [TRANSPONDER_MASTER_V2.BAS] TRISB.5 = 0
000280 9A93           02912         bcf TRISB,5,0
  00000282            02913 F1_000084 equ $ ; IN [TRANSPONDER_MASTER_V2.BAS] TRISB.6 = 0
000282 9C93           02914         bcf TRISB,6,0
  00000284            02915 F1_000085 equ $ ; IN [TRANSPONDER_MASTER_V2.BAS] TRISB.7 = 0
000284 9E93           02916         bcf TRISB,7,0
  00000286            02917 F1_000087 equ $ ; IN [TRANSPONDER_MASTER_V2.BAS] TRISC.0 = 0
000286 9094           02918         bcf TRISC,0,0
  00000288            02919 F1_000088 equ $ ; IN [TRANSPONDER_MASTER_V2.BAS] TRISC.1 = 0
000288 9294           02920         bcf TRISC,1,0
  0000028A            02921 F1_000089 equ $ ; IN [TRANSPONDER_MASTER_V2.BAS] TRISC.2 = 0
00028A 9494           02922         bcf TRISC,2,0
  0000028C            02923 F1_000090 equ $ ; IN [TRANSPONDER_MASTER_V2.BAS] TRISC.3 = 1
00028C 8694           02924         bsf TRISC,3,0
  0000028E            02925 F1_000091 equ $ ; IN [TRANSPONDER_MASTER_V2.BAS] TRISC.4 = 1
00028E 8894           02926         bsf TRISC,4,0
  00000290            02927 F1_000092 equ $ ; IN [TRANSPONDER_MASTER_V2.BAS] TRISC.5 = 1
000290 8A94           02928         bsf TRISC,5,0
  00000292            02929 F1_000093 equ $ ; IN [TRANSPONDER_MASTER_V2.BAS] TRISC.6 = 1
000292 8C94           02930         bsf TRISC,6,0
  00000294            02931 F1_000094 equ $ ; IN [TRANSPONDER_MASTER_V2.BAS] TRISC.7 = 0
000294 9E94           02932         bcf TRISC,7,0
  00000296            02933 F1_000133 equ $ ; IN [TRANSPONDER_MASTER_V2.BAS] SaniyeBekle = 15
000296 6E34           02934         movwf SaniyeBekle,0
  00000298            02935 F1_000137 equ $ ; IN [TRANSPONDER_MASTER_V2.BAS] Pwm_val= 5
000298 0E05           02936         movlw 5
00029A 6E37           02937         movwf Pwm_val,0
  0000029C            02938 F1_000182 equ $ ; IN [TRANSPONDER_MASTER_V2.BAS] SEN = 1
00029C 80C5           02939         bsf SSP1CON2,0,0
  0000029E            02940 F1_000191 equ $ ; IN [TRANSPONDER_MASTER_V2.BAS] DELAYMS 500
00029E 0E01           02941         movlw 1
0002A0 6E10           02942         movwf PP1H,0
0002A2 0EF4           02943         movlw 244
                      02944         f@call __DELAY_MS_W_
  000002A6            02945 F1_000193 equ $ ; IN [TRANSPONDER_MASTER_V2.BAS] TMR1_Enable = 0
0002A6 909D           02946         bcf PIE1,0,0
  000002A8            02947 F1_000195 equ $ ; IN [TRANSPONDER_MASTER_V2.BAS] PEIE = 1
0002A8 8CF2           02948         bsf INTCON,6,0
  000002AA            02949 F1_000196 equ $ ; IN [TRANSPONDER_MASTER_V2.BAS] T1CON.1 = 0
0002AA 92CD           02950         bcf T1CON,1,0
  000002AC            02951 F1_000197 equ $ ; IN [TRANSPONDER_MASTER_V2.BAS] T1CON.4 = 0
0002AC 98CD           02952         bcf T1CON,4,0
  000002AE            02953 F1_000199 equ $ ; IN [TRANSPONDER_MASTER_V2.BAS] TMR1_Enable = 1
0002AE 809D           02954         bsf PIE1,0,0
  000002B0            02955 F1_000200 equ $ ; IN [TRANSPONDER_MASTER_V2.BAS] TMR1_On = 1
0002B0 80CD           02956         bsf T1CON,0,0
  000002B2            02957 F1_000202 equ $ ; IN [TRANSPONDER_MASTER_V2.BAS] GIE = 1
0002B2 8EF2           02958         bsf INTCON,7,0
  000002B4            02959 F1_000208 equ $ ; IN [TRANSPONDER_MASTER_V2.BAS] DURUM = 0
0002B4 6A47           02960         clrf DURUM,0
  000002B6            02961 F1_000212 equ $ ; IN [TRANSPONDER_MASTER_V2.BAS] pllyaz_latch = 1
0002B6 8048           02962         bsf _B#VR1,0,0
  000002B8            02963 F1_000215 equ $ ; IN [TRANSPONDER_MASTER_V2.BAS] DutyCycle = 0
0002B8 6A49           02964         clrf DutyCycle,0
  000002BA            02965 F1_000218 equ $ ; IN [TRANSPONDER_MASTER_V2.BAS] HPWM 1,Pwm_val,2000
0002BA C037 F001      02966         movff Pwm_val,GEN
0002BE 0E07           02967         movlw 7
0002C0 6E10           02968         movwf PP1H,0
0002C2 0ED0           02969         movlw 208
0002C4 6E0F           02970         movwf PP1,0
0002C6 0E01           02971         movlw 1
                      02972         f@call __HPWM_
  000002CA            02973 F1_000220 equ $ ; IN [TRANSPONDER_MASTER_V2.BAS] goto PreMain
0002CA 0100           02974         movlb 0
  00000000            02975 ram_bank = 0
                      02976         f@jump PreMain
0002D0                02977 InterruptSection
  000002D0            02978 F1_000225 equ $ ; IN [TRANSPONDER_MASTER_V2.BAS] CONTEXT SAVE
0002D0 0100           02979         movlb 0
0002D2 C01A F103      02980         movff SP#P9,_High__Context_Store#0
  000002D6            02981 F1_000227 equ $ ; IN [TRANSPONDER_MASTER_V2.BAS] GIE = 0
0002D6 9EF2           02982         bcf INTCON,7,0
  000002D8            02983 F1_000229 equ $ ; IN [TRANSPONDER_MASTER_V2.BAS] if TMR1_Overflow = 1 AND TMR1_Enable = 1 THEN
0002D8 0E00           02984         movlw 0
0002DA B09E           02985         btfsc PIR1,0,0
0002DC 0E01           02986         movlw 1
0002DE 6E1A           02987         movwf SP#P9,0
0002E0 0E00           02988         movlw 0
0002E2 B09D           02989         btfsc PIE1,0,0
0002E4 0E01           02990         movlw 1
0002E6 161A           02991         andwf SP#P9,F,0
0002E8 B4D8           02992         btfsc STATUS,2,0
                      02993         go@to BC@LL3
  000002EE            02994 F1_000230 equ $ ; IN [TRANSPONDER_MASTER_V2.BAS] TMR1_Enable = 0
0002EE 909D           02995         bcf PIE1,0,0
  000002F0            02996 F1_000231 equ $ ; IN [TRANSPONDER_MASTER_V2.BAS] Timer1 = Timer1 + TMR1_Val
0002F0 0E18           02997         movlw 24
0002F2 26CE           02998         addwf TMR1L,F,0
0002F4 0EFC           02999         movlw 252
0002F6 22CF           03000         addwfc TMR1LH,F,0
  000002F8            03001 F1_000232 equ $ ; IN [TRANSPONDER_MASTER_V2.BAS] TMR1_Enable = 1
0002F8 809D           03002         bsf PIE1,0,0
  000002FA            03003 F1_000233 equ $ ; IN [TRANSPONDER_MASTER_V2.BAS] TMR1_Overflow = 0
0002FA 909E           03004         bcf PIR1,0,0
  000002FC            03005 F1_000234 equ $ ; IN [TRANSPONDER_MASTER_V2.BAS] mS = mS + TMR1_mS
0002FC 4A3C           03006         infsnz mS,F,0
0002FE 2A3D           03007         incf mSH,F,0
  00000300            03008 F1_000235 equ $ ; IN [TRANSPONDER_MASTER_V2.BAS] if mS >= 1000 THEN
000300 0E03           03009         movlw 3
000302 5C3D           03010         subwf mSH,W,0
000304 A0D8           03011         btfss STATUS,0,0
                      03012         go@to BC@LL5
00030A A4D8           03013         btfss STATUS,2,0
00030C D005           03014         bra CP@LB2
00030E 0EE8           03015         movlw 232
000310 5C3C           03016         subwf mS,W,0
000312 A0D8           03017         btfss STATUS,0,0
                      03018         go@to BC@LL5
000318                03019 CP@LB2
  000000FF            03020 ram_bank = 255
  00000318            03021 F1_000237 equ $ ; IN [TRANSPONDER_MASTER_V2.BAS] mS = 0
000318 6A3D           03022         clrf mSH,0
00031A 6A3C           03023         clrf mS,0
  0000031C            03024 F1_000238 equ $ ; IN [TRANSPONDER_MASTER_V2.BAS] S = S + 1
00031C 4A3E           03025         infsnz _S,F,0
00031E 2A3F           03026         incf _SH,F,0
  00000320            03027 F1_000239 equ $ ; IN [TRANSPONDER_MASTER_V2.BAS] if S >= 59 THEN
000320 523F           03028         movf _SH,F,0
000322 A4D8           03029         btfss STATUS,2,0
000324 D006           03030         bra CP@LB3
000326 0E3B           03031         movlw 59
000328 5C3E           03032         subwf _S,W,0
00032A 0100           03033         movlb 0
  00000000            03034 ram_bank = 0
00032C A0D8           03035         btfss STATUS,0,0
                      03036         go@to BC@LL7
000332                03037 CP@LB3
  000000FF            03038 ram_bank = 255
  00000332            03039 F1_000240 equ $ ; IN [TRANSPONDER_MASTER_V2.BAS] S = 0
000332 6A3F           03040         clrf _SH,0
000334 6A3E           03041         clrf _S,0
  00000336            03042 F1_000241 equ $ ; IN [TRANSPONDER_MASTER_V2.BAS] mn = mn + 1
000336 2A40           03043         incf mn,F,0
  00000338            03044 F1_000242 equ $ ; IN [TRANSPONDER_MASTER_V2.BAS] if mn >= 59 THEN
000338 0E3B           03045         movlw 59
00033A 5C40           03046         subwf mn,W,0
00033C 0100           03047         movlb 0
  00000000            03048 ram_bank = 0
00033E A0D8           03049         btfss STATUS,0,0
                      03050         go@to BC@LL9
  00000344            03051 F1_000243 equ $ ; IN [TRANSPONDER_MASTER_V2.BAS] mn = 0
000344 6A40           03052         clrf mn,0
  00000346            03053 F1_000244 equ $ ; IN [TRANSPONDER_MASTER_V2.BAS] hr = hr + 1
000346 2A41           03054         incf hr,F,0
  00000348            03055 F1_000245 equ $ ; IN [TRANSPONDER_MASTER_V2.BAS] if hr >= 24 THEN
000348 0E18           03056         movlw 24
00034A 5C41           03057         subwf hr,W,0
00034C A0D8           03058         btfss STATUS,0,0
                      03059         go@to BC@LL11
  00000352            03060 F1_000246 equ $ ; IN [TRANSPONDER_MASTER_V2.BAS] hr = 0
000352 6A41           03061         clrf hr,0
  00000354            03062 F1_000247 equ $ ; IN [TRANSPONDER_MASTER_V2.BAS] dy = dy + 1
000354 2A42           03063         incf dy,F,0
  00000356            03064 F1_000248 equ $ ; IN [TRANSPONDER_MASTER_V2.BAS] endif
000356                03065 BC@LL11
  00000356            03066 F1_000249 equ $ ; IN [TRANSPONDER_MASTER_V2.BAS] endif
000356                03067 BC@LL9
  00000356            03068 F1_000250 equ $ ; IN [TRANSPONDER_MASTER_V2.BAS] endif
000356                03069 BC@LL7
  00000356            03070 F1_000251 equ $ ; IN [TRANSPONDER_MASTER_V2.BAS] endif
000356                03071 BC@LL5
  00000356            03072 F1_000252 equ $ ; IN [TRANSPONDER_MASTER_V2.BAS] endif
000356                03073 BC@LL3
  00000356            03074 F1_000254 equ $ ; IN [TRANSPONDER_MASTER_V2.BAS] GIE = 1
000356 8EF2           03075         bsf INTCON,7,0
  00000358            03076 F1_000256 equ $ ; IN [TRANSPONDER_MASTER_V2.BAS] CONTEXT RESTORE
000358 C103 F01A      03077         movff _High__Context_Store#0,SP#P9
00035C 0011           03078         retfie 1
00035E                03079 PreMain
  0000035E            03080 F1_000260 equ $ ; IN [TRANSPONDER_MASTER_V2.BAS] S = 0
00035E 6A3F           03081         clrf _SH,0
000360 6A3E           03082         clrf _S,0
  00000362            03083 F1_000261 equ $ ; IN [TRANSPONDER_MASTER_V2.BAS] mn = 0
000362 6A40           03084         clrf mn,0
  00000364            03085 F1_000262 equ $ ; IN [TRANSPONDER_MASTER_V2.BAS] hr   = 0
000364 6A41           03086         clrf hr,0
  00000366            03087 F1_000263 equ $ ; IN [TRANSPONDER_MASTER_V2.BAS] dy    = 0
000366 6A42           03088         clrf dy,0
  00000368            03089 F1_000266 equ $ ; IN [TRANSPONDER_MASTER_V2.BAS] low pllPSRF
000368 9C93           03090         bcf TRISB,6,0
00036A 9C8A           03091         bcf LATB,6,0
  0000036C            03092 F1_000267 equ $ ; IN [TRANSPONDER_MASTER_V2.BAS] low pllPSIF
00036C 9E93           03093         bcf TRISB,7,0
00036E 9E8A           03094         bcf LATB,7,0
  00000370            03095 F1_000268 equ $ ; IN [TRANSPONDER_MASTER_V2.BAS] DELAYMS 10
000370 0E0A           03096         movlw 10
                      03097         f@call __DELAY_MS_
  00000374            03098 F1_000269 equ $ ; IN [TRANSPONDER_MASTER_V2.BAS] low pllLE
000374 9A93           03099         bcf TRISB,5,0
000376 9A8A           03100         bcf LATB,5,0
  00000378            03101 F1_000270 equ $ ; IN [TRANSPONDER_MASTER_V2.BAS] high pllPSRF
000378 9C93           03102         bcf TRISB,6,0
00037A 8C8A           03103         bsf LATB,6,0
  0000037C            03104 F1_000271 equ $ ; IN [TRANSPONDER_MASTER_V2.BAS] high pllPSIF
00037C 9E93           03105         bcf TRISB,7,0
00037E 8E8A           03106         bsf LATB,7,0
  00000380            03107 F1_000276 equ $ ; IN [TRANSPONDER_MASTER_V2.BAS] if TRANSPONDER_MODE = LAB THEN
000380 0E01           03108         movlw 1
000382 5C1B           03109         subwf TRANSPONDER_MODE,W,0
000384 A4D8           03110         btfss STATUS,2,0
                      03111         go@to BC@LL13
  0000038A            03112 F1_000277 equ $ ; IN [TRANSPONDER_MASTER_V2.BAS] low  TPS2421en
00038A 9892           03113         bcf TRISA,4,0
00038C 9889           03114         bcf LATA,4,0
  0000038E            03115 F1_000278 equ $ ; IN [TRANSPONDER_MASTER_V2.BAS] high LD29300enable
00038E 9094           03116         bcf TRISC,0,0
000390 808B           03117         bsf LATC,0,0
  00000392            03118 F1_000279 equ $ ; IN [TRANSPONDER_MASTER_V2.BAS] TR_MD = TR_ON
000392 0E01           03119         movlw 1
000394 6E1C           03120         movwf TR_MD,0
  00000396            03121 F1_000280 equ $ ; IN [TRANSPONDER_MASTER_V2.BAS] endif
000396                03122 BC@LL13
  00000396            03123 F1_000282 equ $ ; IN [TRANSPONDER_MASTER_V2.BAS] GOSUB Pll_Programla
                      03124         f@call Pll_Programla
  0000039A            03125 F1_000295 equ $ ; IN [TRANSPONDER_MASTER_V2.BAS] Reset_Count = EREAD 0
00039A 0E00           03126         movlw 0
                      03127         f@call __EEREAD_
00039E 6E4A           03128         movwf Reset_Count,0
                      03129         f@call __EEREAD_W_
0003A2 6E4B           03130         movwf Reset_CountH,0
  000003A4            03131 F1_000296 equ $ ; IN [TRANSPONDER_MASTER_V2.BAS] if Reset_Count = 0 THEN GOSUB Antenleri_ac
0003A4 504B           03132         movf Reset_CountH,W,0
0003A6 104A           03133         iorwf Reset_Count,W,0
0003A8 A4D8           03134         btfss STATUS,2,0
                      03135         go@to BC@LL15
                      03136         f@call Antenleri_ac
0003B2                03137 BC@LL15
  000003B2            03138 F1_000297 equ $ ; IN [TRANSPONDER_MASTER_V2.BAS] EWRITE 0,[Reset_Count + 1]
0003B2 6AA9           03139         clrf EEADR,0
0003B4 0E01           03140         movlw 1
0003B6 244A           03141         addwf Reset_Count,W,0
0003B8 6E18           03142         movwf PP7,0
0003BA 0E00           03143         movlw 0
0003BC 204B           03144         addwfc Reset_CountH,W,0
0003BE 6E19           03145         movwf PP7H,0
0003C0 5018           03146         movf PP7,W,0
                      03147         f@call __EEWRITE_
0003C4 5019           03148         movf PP7H,W,0
                      03149         f@call __EEWRITE_
0003C8                03150 Main
  000003C8            03151 F1_000312 equ $ ; IN [TRANSPONDER_MASTER_V2.BAS] dongusay = dongusay + 1
0003C8 0101           03152         movlb 1
  00000001            03153 ram_bank = 1
0003CA 2B01           03154         incf dongusay,F,1
  000003CC            03155 F1_000315 equ $ ; IN [TRANSPONDER_MASTER_V2.BAS] DELAYMS 10
0003CC 0E0A           03156         movlw 10
                      03157         f@call __DELAY_MS_
  000003D0            03158 F1_000319 equ $ ; IN [TRANSPONDER_MASTER_V2.BAS] I2COUT PORTC.4, PORTC.3, $56,[1]
0003D0 0E82           03159         movlw PORTC
0003D2 6E01           03160         movwf GEN,0
0003D4 0E10           03161         movlw 16
0003D6 6E04           03162         movwf GENH,0
0003D8 0E82           03163         movlw PORTC
0003DA 6E02           03164         movwf GEN2,0
0003DC 0E08           03165         movlw 8
0003DE 6E03           03166         movwf GEN2H,0
0003E0 0E56           03167         movlw 86
                      03168         f@call I2COUT
0003E4 0E01           03169         movlw 1
                      03170         f@call I2COUT2
  000003E8            03171 F1_000320 equ $ ; IN [TRANSPONDER_MASTER_V2.BAS] DELAYMS 5
0003E8 0E05           03172         movlw 5
                      03173         f@call __DELAY_MS_
  000003EC            03174 F1_000321 equ $ ; IN [TRANSPONDER_MASTER_V2.BAS] I2CIN PORTC.4, PORTC.3, $56,[EPSstatus]
0003EC 0E82           03175         movlw PORTC
0003EE 6E01           03176         movwf GEN,0
0003F0 0E10           03177         movlw 16
0003F2 6E04           03178         movwf GENH,0
0003F4 0E82           03179         movlw PORTC
0003F6 6E02           03180         movwf GEN2,0
0003F8 0E08           03181         movlw 8
0003FA 6E03           03182         movwf GEN2H,0
0003FC 0E56           03183         movlw 86
                      03184         f@call I2COUT
                      03185         f@call I2CIN2
000402 0100           03186         movlb 0
  00000000            03187 ram_bank = 0
000404 6FEE           03188         movwf EPSstatus,1
  00000406            03189 F1_000322 equ $ ; IN [TRANSPONDER_MASTER_V2.BAS] DELAYMS 5
000406 0E05           03190         movlw 5
                      03191         f@call __DELAY_MS_
  0000040A            03192 F1_000330 equ $ ; IN [TRANSPONDER_MASTER_V2.BAS] FOR ADCsay  = 0 TO 31
00040A 0101           03193         movlb 1
  00000001            03194 ram_bank = 1
00040C 6B02           03195         clrf ADCsay,1
00040E                03196 FR@LB16
  00000000            03197 ram_bank = 0
00040E 0E20           03198         movlw 32
000410 0101           03199         movlb 1
  00000001            03200 ram_bank = 1
000412 5D02           03201         subwf ADCsay,W,1
000414 0100           03202         movlb 0
  00000000            03203 ram_bank = 0
000416 B0D8           03204         btfsc STATUS,0,0
                      03205         go@to NX@LB17
  0000041C            03206 F1_000331 equ $ ; IN [TRANSPONDER_MASTER_V2.BAS] I2COUT PORTC.4, PORTC.3, $56, 0,[ADCsay]
00041C 0E82           03207         movlw PORTC
00041E 6E01           03208         movwf GEN,0
000420 0E10           03209         movlw 16
000422 6E04           03210         movwf GENH,0
000424 0E82           03211         movlw PORTC
000426 6E02           03212         movwf GEN2,0
000428 0E08           03213         movlw 8
00042A 6E03           03214         movwf GEN2H,0
00042C 0E56           03215         movlw 86
                      03216         f@call I2COUT
000430 0E00           03217         movlw 0
                      03218         f@call I2COUT
000434 0101           03219         movlb 1
  00000001            03220 ram_bank = 1
000436 5102           03221         movf ADCsay,W,1
                      03222         f@call I2COUT2
  0000043A            03223 F1_000332 equ $ ; IN [TRANSPONDER_MASTER_V2.BAS] DELAYMS 10
00043A 0E0A           03224         movlw 10
                      03225         f@call __DELAY_MS_
  0000043E            03226 F1_000333 equ $ ; IN [TRANSPONDER_MASTER_V2.BAS] I2CIN PORTC.4, PORTC.3, $56,[EPS_ADCVal[ADCsay]]
00043E 0E82           03227         movlw PORTC
000440 6E01           03228         movwf GEN,0
000442 0E10           03229         movlw 16
000444 6E04           03230         movwf GENH,0
000446 0E82           03231         movlw PORTC
000448 6E02           03232         movwf GEN2,0
00044A 0E08           03233         movlw 8
00044C 6E03           03234         movwf GEN2H,0
00044E 0E56           03235         movlw 86
                      03236         f@call I2COUT
                      03237         f@call I2CIN
000454 6E07           03238         movwf PBP#VAR0H,0
                      03239         f@call I2CIN2
000458 6E06           03240         movwf PBP#VAR0,0
00045A EE00 F04C      03241         lfsr 0,EPS_ADCVal
00045E 90D8           03242         bcf STATUS,0,0
000460 3502           03243         rlcf ADCsay,W,1
000462 C006 FFEB      03244         movff PBP#VAR0,PLUSW0
000466 2AE8           03245         incf WREG,F,0
000468 C007 FFEB      03246         movff PBP#VAR0H,PLUSW0
  0000046C            03247 F1_000334 equ $ ; IN [TRANSPONDER_MASTER_V2.BAS] DELAYMS 10
00046C 0E0A           03248         movlw 10
                      03249         f@call __DELAY_MS_
000470                03250 CT@LB18
  00000000            03251 ram_bank = 0
  00000470            03252 F1_000335 equ $ ; IN [TRANSPONDER_MASTER_V2.BAS] NEXT ADCsay
000470 0101           03253         movlb 1
  00000001            03254 ram_bank = 1
000472 2B02           03255         incf ADCsay,F,1
000474 0100           03256         movlb 0
  00000000            03257 ram_bank = 0
000476 A0D8           03258         btfss STATUS,0,0
                      03259         go@to FR@LB16
00047A                03260 NX@LB17
  0000047A            03261 F1_000345 equ $ ; IN [TRANSPONDER_MASTER_V2.BAS] DELAYMS 40
00047A 0E28           03262         movlw 40
                      03263         f@call __DELAY_MS_
  0000047E            03264 F1_000346 equ $ ; IN [TRANSPONDER_MASTER_V2.BAS] I2COUT PORTC.4, PORTC.3, $40,[4]
00047E 0E82           03265         movlw PORTC
000480 6E01           03266         movwf GEN,0
000482 0E10           03267         movlw 16
000484 6E04           03268         movwf GENH,0
000486 0E82           03269         movlw PORTC
000488 6E02           03270         movwf GEN2,0
00048A 0E08           03271         movlw 8
00048C 6E03           03272         movwf GEN2H,0
00048E 0E40           03273         movlw 64
                      03274         f@call I2COUT
000492 0E04           03275         movlw 4
                      03276         f@call I2COUT2
  00000496            03277 F1_000347 equ $ ; IN [TRANSPONDER_MASTER_V2.BAS] DELAYMS 10
000496 0E0A           03278         movlw 10
                      03279         f@call __DELAY_MS_
  0000049A            03280 F1_000348 equ $ ; IN [TRANSPONDER_MASTER_V2.BAS] I2CIN PORTC.4, PORTC.3, $40,[DTMFbatt[0],DTMFbatt[1]]
00049A 0E82           03281         movlw PORTC
00049C 6E01           03282         movwf GEN,0
00049E 0E10           03283         movlw 16
0004A0 6E04           03284         movwf GENH,0
0004A2 0E82           03285         movlw PORTC
0004A4 6E02           03286         movwf GEN2,0
0004A6 0E08           03287         movlw 8
0004A8 6E03           03288         movwf GEN2H,0
0004AA 0E40           03289         movlw 64
                      03290         f@call I2COUT
                      03291         f@call I2CIN2
0004B2 C00F F0F3      03292         movff PP1,DTMFbatt#0
                      03293         f@call I2CIN2
0004BA C00F F0F4      03294         movff PP1,DTMFbatt#1
  000004BE            03295 F1_000349 equ $ ; IN [TRANSPONDER_MASTER_V2.BAS] DELAYMS 10
0004BE 0E0A           03296         movlw 10
                      03297         f@call __DELAY_MS_
  000004C2            03298 F1_000350 equ $ ; IN [TRANSPONDER_MASTER_V2.BAS] DELAYMS 40
0004C2 0E28           03299         movlw 40
                      03300         f@call __DELAY_MS_
  000004C6            03301 F1_000355 equ $ ; IN [TRANSPONDER_MASTER_V2.BAS] FOR ADCsay  = 0 TO 31
0004C6 0101           03302         movlb 1
  00000001            03303 ram_bank = 1
0004C8 6B02           03304         clrf ADCsay,1
0004CA                03305 FR@LB19
  00000000            03306 ram_bank = 0
0004CA 0E20           03307         movlw 32
0004CC 0101           03308         movlb 1
  00000001            03309 ram_bank = 1
0004CE 5D02           03310         subwf ADCsay,W,1
0004D0 0100           03311         movlb 0
  00000000            03312 ram_bank = 0
0004D2 B0D8           03313         btfsc STATUS,0,0
                      03314         go@to NX@LB20
  000004D8            03315 F1_000356 equ $ ; IN [TRANSPONDER_MASTER_V2.BAS] EPS_ADCValByte[2*ADCsay]   = EPS_ADCVal[ADCsay] & $0F
0004D8 0101           03316         movlb 1
  00000001            03317 ram_bank = 1
0004DA 5102           03318         movf ADCsay,W,1
0004DC 0D02           03319         mullw 2
0004DE 50F3           03320         movf PRODL,W,0
0004E0 6E06           03321         movwf PBP#VAR0,0
0004E2 EE00 F04C      03322         lfsr 0,EPS_ADCVal
0004E6 90D8           03323         bcf STATUS,0,0
0004E8 3502           03324         rlcf ADCsay,W,1
0004EA 26E9           03325         addwf FSR0L,F,0
0004EC 0E00           03326         movlw 0
0004EE 22EA           03327         addwfc FSR0H,F,0
0004F0 CFEE F00B      03328         movff POSTINC0,PBP#VAR2
0004F4 CFEF F00C      03329         movff INDF0,PBP#VAR2H
0004F8 0E0F           03330         movlw 15
0004FA 140B           03331         andwf PBP#VAR2,W,0
0004FC 6E0A           03332         movwf PBP#VAR1,0
0004FE EE00 F08C      03333         lfsr 0,EPS_ADCValByte
000502 5006           03334         movf PBP#VAR0,W,0
000504 C00A FFEB      03335         movff PBP#VAR1,PLUSW0
  00000508            03336 F1_000357 equ $ ; IN [TRANSPONDER_MASTER_V2.BAS] EPS_ADCValByte[2*ADCsay+1] = EPS_ADCVal[ADCsay] & $F0
000508 5102           03337         movf ADCsay,W,1
00050A 0D02           03338         mullw 2
00050C CFF3 F018      03339         movff PRODL,PP7
000510 CFF4 F019      03340         movff PRODH,PP7H
000514 2818           03341         incf PP7,W,0
000516 6E06           03342         movwf PBP#VAR0,0
000518 EE00 F04C      03343         lfsr 0,EPS_ADCVal
00051C 90D8           03344         bcf STATUS,0,0
00051E 3502           03345         rlcf ADCsay,W,1
000520 26E9           03346         addwf FSR0L,F,0
000522 0E00           03347         movlw 0
000524 22EA           03348         addwfc FSR0H,F,0
000526 CFEE F00B      03349         movff POSTINC0,PBP#VAR2
00052A CFEF F00C      03350         movff INDF0,PBP#VAR2H
00052E 0EF0           03351         movlw 240
000530 140B           03352         andwf PBP#VAR2,W,0
000532 6E0A           03353         movwf PBP#VAR1,0
000534 EE00 F08C      03354         lfsr 0,EPS_ADCValByte
000538 5006           03355         movf PBP#VAR0,W,0
00053A C00A FFEB      03356         movff PBP#VAR1,PLUSW0
00053E                03357 CT@LB21
  00000000            03358 ram_bank = 0
  0000053E            03359 F1_000358 equ $ ; IN [TRANSPONDER_MASTER_V2.BAS] NEXT ADCsay
00053E 0101           03360         movlb 1
  00000001            03361 ram_bank = 1
000540 2B02           03362         incf ADCsay,F,1
000542 0100           03363         movlb 0
  00000000            03364 ram_bank = 0
000544 A0D8           03365         btfss STATUS,0,0
                      03366         go@to FR@LB19
000548                03367 NX@LB20
  00000548            03368 F1_000360 equ $ ; IN [TRANSPONDER_MASTER_V2.BAS] I2COUT PORTC.4, PORTC.3, $38,[DTMFbatt[0],DTMFbatt[1],STR EPS_ADCValByte]
000548 0E82           03369         movlw PORTC
00054A 6E01           03370         movwf GEN,0
00054C 0E10           03371         movlw 16
00054E 6E04           03372         movwf GENH,0
000550 0E82           03373         movlw PORTC
000552 6E02           03374         movwf GEN2,0
000554 0E08           03375         movlw 8
000556 6E03           03376         movwf GEN2H,0
000558 0E38           03377         movlw 56
                      03378         f@call I2COUT
00055E 51F3           03379         movf DTMFbatt#0,W,1
                      03380         f@call I2COUT
000564 51F4           03381         movf DTMFbatt#1,W,1
                      03382         f@call I2COUT
00056A 6A06           03383         clrf PBP#VAR0,0
00056C                03384 PB@LB24
00056C EE00 F08C      03385         lfsr 0,EPS_ADCValByte
000570 5006           03386         movf PBP#VAR0,W,0
000572 50EB           03387         movf PLUSW0,W,0
                      03388         f@call I2COUT
000578 2A06           03389         incf PBP#VAR0,F,0
00057A 5006           03390         movf PBP#VAR0,W,0
00057C 0840           03391         sublw 64
00057E E1F6           03392         bnz PB@LB24
                      03393         f@call I2C@STP
  00000584            03394 F1_000361 equ $ ; IN [TRANSPONDER_MASTER_V2.BAS] DELAYMS 20
000584 0E14           03395         movlw 20
                      03396         f@call __DELAY_MS_
  00000588            03397 F1_000383 equ $ ; IN [TRANSPONDER_MASTER_V2.BAS] TPS_Akim = ADIN 1
000588 0E01           03398         movlw 1
                      03399         f@call __ADIN_
00058C 6E35           03400         movwf TPS_Akim,0
00058E C019 F036      03401         movff PP7H,TPS_AkimH
  00000592            03402 F1_000384 equ $ ; IN [TRANSPONDER_MASTER_V2.BAS] TPS_Akim = TPS_Akim >> 2
000592 90D8           03403         bcf STATUS,0,0
000594 3236           03404         rrcf TPS_AkimH,F,0
000596 3235           03405         rrcf TPS_Akim,F,0
000598 90D8           03406         bcf STATUS,0,0
00059A 3236           03407         rrcf TPS_AkimH,F,0
00059C 3235           03408         rrcf TPS_Akim,F,0
  0000059E            03409 F1_000385 equ $ ; IN [TRANSPONDER_MASTER_V2.BAS] Cikis_Gucu = ADIN 2
00059E 0E02           03410         movlw 2
                      03411         f@call __ADIN_
0005A4 6E38           03412         movwf Cikis_Gucu,0
0005A6 C019 F039      03413         movff PP7H,Cikis_GucuH
  000005AA            03414 F1_000386 equ $ ; IN [TRANSPONDER_MASTER_V2.BAS] Cikis_Gucu = Cikis_Gucu >> 2
0005AA 90D8           03415         bcf STATUS,0,0
0005AC 3239           03416         rrcf Cikis_GucuH,F,0
0005AE 3238           03417         rrcf Cikis_Gucu,F,0
0005B0 90D8           03418         bcf STATUS,0,0
0005B2 3239           03419         rrcf Cikis_GucuH,F,0
0005B4 3238           03420         rrcf Cikis_Gucu,F,0
  000005B6            03421 F1_000467 equ $ ; IN [TRANSPONDER_MASTER_V2.BAS] DELAYMS 10
0005B6 0E0A           03422         movlw 10
                      03423         f@call __DELAY_MS_
  000005BA            03424 F1_000473 equ $ ; IN [TRANSPONDER_MASTER_V2.BAS] DELAYMS 1000
0005BA 0E03           03425         movlw 3
0005BC 6E10           03426         movwf PP1H,0
0005BE 0EE8           03427         movlw 232
                      03428         f@call __DELAY_MS_W_
  000005C4            03429 F1_000477 equ $ ; IN [TRANSPONDER_MASTER_V2.BAS] goto Main
                      03430         f@jump Main
0005C6                03431 Antenleri_ac
  000005C6            03432 F1_000483 equ $ ; IN [TRANSPONDER_MASTER_V2.BAS] DELAYMS 1000
0005C6 0E03           03433         movlw 3
0005C8 6E10           03434         movwf PP1H,0
0005CA 0EE8           03435         movlw 232
                      03436         f@call __DELAY_MS_W_
  000005D0            03437 F1_000485 equ $ ; IN [TRANSPONDER_MASTER_V2.BAS] return
0005D0 0012           03438         return 0
0005D2                03439 Pll_Programla
  000005D2            03440 F1_000489 equ $ ; IN [TRANSPONDER_MASTER_V2.BAS] DataOut =  %000000000000000100110000010000
0005D2 6A32           03441         clrf DataOutHHH,0
0005D4 6A31           03442         clrf DataOutHH,0
0005D6 0E4C           03443         movlw 76
0005D8 6E30           03444         movwf DataOutH,0
0005DA 0E10           03445         movlw 16
0005DC 6E2F           03446         movwf DataOut,0
  000005DE            03447 F1_000490 equ $ ; IN [TRANSPONDER_MASTER_V2.BAS] GOSUB Pllgonder
                      03448         f@call Pllgonder
  000005E2            03449 F1_000491 equ $ ; IN [TRANSPONDER_MASTER_V2.BAS] DataOut =  %000000001101100000011110101101
0005E2 6A32           03450         clrf DataOutHHH,0
0005E4 0E36           03451         movlw 54
0005E6 6E31           03452         movwf DataOutHH,0
0005E8 0E07           03453         movlw 7
0005EA 6E30           03454         movwf DataOutH,0
0005EC 0EAD           03455         movlw 173
0005EE 6E2F           03456         movwf DataOut,0
  000005F0            03457 F1_000492 equ $ ; IN [TRANSPONDER_MASTER_V2.BAS] GOSUB     Pllgonder
                      03458         f@call Pllgonder
  000005F4            03459 F1_000493 equ $ ; IN [TRANSPONDER_MASTER_V2.BAS] DataOut =  %000000010000000010100000010000
0005F4 6A32           03460         clrf DataOutHHH,0
0005F6 0E40           03461         movlw 64
0005F8 6E31           03462         movwf DataOutHH,0
0005FA 0E28           03463         movlw 40
0005FC 6E30           03464         movwf DataOutH,0
0005FE 0E10           03465         movlw 16
000600 6E2F           03466         movwf DataOut,0
  00000602            03467 F1_000494 equ $ ; IN [TRANSPONDER_MASTER_V2.BAS] GOSUB Pllgonder
                      03468         f@call Pllgonder
  00000606            03469 F1_000495 equ $ ; IN [TRANSPONDER_MASTER_V2.BAS] DataOut =  %000000011011111101010011011000
000606 6A32           03470         clrf DataOutHHH,0
000608 0E6F           03471         movlw 111
00060A 6E31           03472         movwf DataOutHH,0
00060C 0ED4           03473         movlw 212
00060E 6E30           03474         movwf DataOutH,0
000610 0ED8           03475         movlw 216
000612 6E2F           03476         movwf DataOut,0
  00000614            03477 F1_000496 equ $ ; IN [TRANSPONDER_MASTER_V2.BAS] GOSUB     Pllgonder
                      03478         f@call Pllgonder
  00000618            03479 F1_000497 equ $ ; IN [TRANSPONDER_MASTER_V2.BAS] return
000618 0012           03480         return 0
00061A                03481 Pllgonder
  0000061A            03482 F1_000501 equ $ ; IN [TRANSPONDER_MASTER_V2.BAS] FOR sayac = 1 TO 23
00061A 0E01           03483         movlw 1
00061C 6E33           03484         movwf sayac,0
00061E                03485 FR@LB25
00061E 0E18           03486         movlw 24
000620 5C33           03487         subwf sayac,W,0
000622 B0D8           03488         btfsc STATUS,0,0
                      03489         go@to NX@LB26
  00000628            03490 F1_000502 equ $ ; IN [TRANSPONDER_MASTER_V2.BAS] low pllDATA
000628 9893           03491         bcf TRISB,4,0
00062A 988A           03492         bcf LATB,4,0
  0000062C            03493 F1_000503 equ $ ; IN [TRANSPONDER_MASTER_V2.BAS] if (DataOut & 1) = 1 THEN high pllDATA
00062C 0E01           03494         movlw 1
00062E 142F           03495         andwf DataOut,W,0
000630 6A09           03496         clrf PBP#VAR0HHH,0
000632 6A08           03497         clrf PBP#VAR0HH,0
000634 6A07           03498         clrf PBP#VAR0H,0
000636 6E06           03499         movwf PBP#VAR0,0
000638 0406           03500         decf PBP#VAR0,W,0
00063A 1007           03501         iorwf PBP#VAR0H,W,0
00063C 1008           03502         iorwf PBP#VAR0HH,W,0
00063E 1009           03503         iorwf PBP#VAR0HHH,W,0
000640 A4D8           03504         btfss STATUS,2,0
                      03505         go@to BC@LL29
000646 9893           03506         bcf TRISB,4,0
000648 888A           03507         bsf LATB,4,0
00064A                03508 BC@LL29
  0000064A            03509 F1_000504 equ $ ; IN [TRANSPONDER_MASTER_V2.BAS] DataOut = DataOut >> 1
00064A 90D8           03510         bcf STATUS,0,0
00064C 3232           03511         rrcf DataOutHHH,F,0
00064E 3231           03512         rrcf DataOutHH,F,0
000650 3230           03513         rrcf DataOutH,F,0
000652 322F           03514         rrcf DataOut,F,0
  00000654            03515 F1_000505 equ $ ; IN [TRANSPONDER_MASTER_V2.BAS] DELAYUS 10
000654 0E03           03516         movlw 3
000656 2EE8           03517         decfsz WREG,F,0
000658 D7FE           03518         bra $ - 2
00065A 0000           03519         nop
00065C 0000           03520         nop
  0000065E            03521 F1_000506 equ $ ; IN [TRANSPONDER_MASTER_V2.BAS] high pllCLK
00065E 9693           03522         bcf TRISB,3,0
000660 868A           03523         bsf LATB,3,0
  00000662            03524 F1_000507 equ $ ; IN [TRANSPONDER_MASTER_V2.BAS] DELAYUS 10
000662 0E03           03525         movlw 3
000664 2EE8           03526         decfsz WREG,F,0
000666 D7FE           03527         bra $ - 2
000668 0000           03528         nop
00066A 0000           03529         nop
  0000066C            03530 F1_000508 equ $ ; IN [TRANSPONDER_MASTER_V2.BAS] low pllCLK
00066C 9693           03531         bcf TRISB,3,0
00066E 968A           03532         bcf LATB,3,0
  00000670            03533 F1_000509 equ $ ; IN [TRANSPONDER_MASTER_V2.BAS] DELAYUS 10
000670 0E03           03534         movlw 3
000672 2EE8           03535         decfsz WREG,F,0
000674 D7FE           03536         bra $ - 2
000676 0000           03537         nop
000678 0000           03538         nop
00067A                03539 CT@LB27
  0000067A            03540 F1_000510 equ $ ; IN [TRANSPONDER_MASTER_V2.BAS] NEXT sayac
00067A 2A33           03541         incf sayac,F,0
00067C A0D8           03542         btfss STATUS,0,0
                      03543         go@to FR@LB25
000680                03544 NX@LB26
  00000680            03545 F1_000512 equ $ ; IN [TRANSPONDER_MASTER_V2.BAS] high pllLE
000680 9A93           03546         bcf TRISB,5,0
000682 8A8A           03547         bsf LATB,5,0
  00000684            03548 F1_000513 equ $ ; IN [TRANSPONDER_MASTER_V2.BAS] DELAYUS 10
000684 0E03           03549         movlw 3
000686 2EE8           03550         decfsz WREG,F,0
000688 D7FE           03551         bra $ - 2
00068A 0000           03552         nop
00068C 0000           03553         nop
  0000068E            03554 F1_000514 equ $ ; IN [TRANSPONDER_MASTER_V2.BAS] low pllLE
00068E 9A93           03555         bcf TRISB,5,0
000690 9A8A           03556         bcf LATB,5,0
  00000692            03557 F1_000515 equ $ ; IN [TRANSPONDER_MASTER_V2.BAS] DELAYUS 10
000692 0E03           03558         movlw 3
000694 2EE8           03559         decfsz WREG,F,0
000696 D7FE           03560         bra $ - 2
000698 0000           03561         nop
00069A 0000           03562         nop
  0000069C            03563 F1_000517 equ $ ; IN [TRANSPONDER_MASTER_V2.BAS] return
00069C 0012           03564         return 0
  0000069E            03565 F1_EOF equ $ ; TRANSPONDER_MASTER_V2.BAS
00069E                03566 PB@LB30
00069E D7FF           03567         bra PB@LB30
0006A0                03569 __EOF
21 1E 1C 3F 80 03 C0 003570 config FOSC = XT
       3 E0 03 40 
                      03571 config PLLCFG = off
                      03572 config PRICLKEN = on
                      03573 config FCMEN = off
                      03574 config IESO = off
                      03575 config PWRTEN = on
                      03576 config BOREN = SBORDIS
                      03577 config BORV = 190
                      03578 config WDTEN = off
                      03579 config WDTPS = 128
                      03580 config CCP2MX = PORTC1
                      03581 config STVREN = off
                      03582 config LVP = off
                      03583 config MCLRE = INTMCLR
                      03584 config CP0 = off
                      03585 config CP1 = off
                      03586 config CPB = off
                      03587 config CPD = off
                      03588 config WRT0 = off
                      03589 config WRT1 = off
                      03590 config WRTB = off
                      03591 config WRTC = off
                      03592 config WRTD = off
                      03593 config EBTR0 = off
                      03594 config EBTR1 = off
                      03595 config EBTRB = off
                      03596         end
MPASM  5.45                               A.S   1-4-2014  9:46:32         PAGE  3


SYMBOL TABLE
  LABEL                             VALUE 

ABDEN                             00000000
ABDOVF                            00000007
ACKDT                             00000005
ACKEN                             00000004
ACKSTAT                           00000006
ACKTIM                            00000007
ACQT0                             00000003
ACQT1                             00000004
ACQT2                             00000005
ACS714_5V                         PORTA,2
AD8317AGCSET                      PORTC,2
AD8317FINAL                       PORTC,7
ADCMD                             00000000
ADCON0                            00000FC2
ADCON1                            00000FC1
ADCON2                            00000FC0
ADCS0                             00000000
ADCS1                             00000001
ADCS2                             00000002
ADCSAY                            00000102
ADDEN                             00000003
ADEN                              00000003
ADFM                              00000007
ADIE                              00000006
ADIF                              00000006
ADIN_REQ                          0000000A
ADIN_STIME                        00000032
ADIN_TAD                          00000003
ADIP                              00000006
ADON                              00000000
ADRES                             00000FC3
ADRESH                            00000FC4
ADRESL                            00000FC3
ADRESLH                           00000FC4
AGC8317IN                         PORTA,1
AHEN                              SSP1CON3,1
AN0                               00000000
AN1                               00000001
AN10                              00000001
AN11                              00000004
AN12                              00000000
AN13                              00000005
AN14                              00000002
AN15                              00000003
AN16                              00000004
AN17                              00000005
AN18                              00000006
AN19                              00000007
AN2                               00000002
AN3                               00000003
AN4                               00000005
AN8                               00000002
AN9                               00000003
ANSA0                             00000000
ANSA1                             00000001
ANSA2                             00000002
ANSA3                             00000003
ANSA5                             00000005
ANSB0                             00000000
ANSB1                             00000001
ANSB2                             00000002
ANSB3                             00000003
ANSB4                             00000004
ANSB5                             00000005
ANSC2                             00000002
ANSC3                             00000003
ANSC4                             00000004
ANSC5                             00000005
ANSC6                             00000006
ANSC7                             00000007
ANSELA                            00000F38
ANSELB                            00000F39
ANSELC                            00000F3A
ANTENLERI_AC                      000005C6
BANKA_END                         95
BANKA_START                       0
BATSTATUS1                        000000F0
BATSTATUS2                        000000F1
BATVERSIYON                       000000EF
BAT_ADCVAL                        000000CC
BAT_ADCVAL#0                      000000CC
BAT_ADCVAL#0H                     000000CD
BAT_ADCVAL#1                      000000CE
BAT_ADCVAL#10                     000000E0
BAT_ADCVAL#10H                    000000E1
BAT_ADCVAL#11                     000000E2
BAT_ADCVAL#11H                    000000E3
BAT_ADCVAL#12                     000000E4
BAT_ADCVAL#12H                    000000E5
BAT_ADCVAL#13                     000000E6
BAT_ADCVAL#13H                    000000E7
BAT_ADCVAL#14                     000000E8
BAT_ADCVAL#14H                    000000E9
BAT_ADCVAL#15                     000000EA
BAT_ADCVAL#15H                    000000EB
BAT_ADCVAL#1H                     000000CF
BAT_ADCVAL#2                      000000D0
BAT_ADCVAL#2H                     000000D1
BAT_ADCVAL#3                      000000D2
BAT_ADCVAL#3H                     000000D3
BAT_ADCVAL#4                      000000D4
BAT_ADCVAL#4H                     000000D5
BAT_ADCVAL#5                      000000D6
BAT_ADCVAL#5H                     000000D7
BAT_ADCVAL#6                      000000D8
BAT_ADCVAL#6H                     000000D9
BAT_ADCVAL#7                      000000DA
BAT_ADCVAL#7H                     000000DB
BAT_ADCVAL#8                      000000DC
BAT_ADCVAL#8H                     000000DD
BAT_ADCVAL#9                      000000DE
BAT_ADCVAL#9H                     000000DF
BAT_ADCVALH                       000000CD
BAUD1CON                          00000FB8
BAUD2CON                          00000F70
BAUDCON                           00000FB8
BAUDCON1                          00000FB8
BAUDCON2                          00000F70
BAUDCTL                           00000FB8
BC@LL11                           00000356
BC@LL13                           00000396
BC@LL15                           000003B2
BC@LL29                           0000064A
BC@LL3                            00000356
BC@LL5                            00000356
BC@LL7                            00000356
BC@LL9                            00000356
BCL1IE                            00000003
BCL1IF                            00000003
BCL1IP                            00000003
BCL2IE                            00000006
BCL2IF                            00000006
BCL2IP                            00000006
BCLIE                             00000003
BCLIF                             00000003
BCLIP                             00000003
BF                                SSPSTAT,0
BGST                              00000005
BGVST                             00000006
BIT_BIT                           
BIT_BYTE                          
BIT_DWORD                         
BIT_FLOAT                         
BIT_WORD                          
BIT_WREG                          
BOEN                              00000004
BOR                               00000000
BOREN_NOSLP_2                     000000FD
BOREN_OFF_2                       000000F9
BOREN_ON_2                        000000FB
BOREN_SBORDIS_2                   000000FF
BORV_190_2                        000000FF
BORV_220_2                        000000F7
BORV_250_2                        000000EF
BORV_285_2                        000000E7
BPF                               00000000
BRG16                             00000003
BRGH                              00000002
BSR                               00000FE0
BYTE_BIT                          
BYTE_BYTE                         
BYTE_DWORD                        
BYTE_FLOAT                        
BYTE_SDWORD                       
BYTE_SWORD                        
BYTE_WORD                         
BYTE_WREG                         
C                                 00000000
C12IN0M                           00000000
C12IN0N                           00000000
C12IN1M                           00000001
C12IN1N                           00000001
C12IN2M                           00000003
C12IN2N                           00000003
C12IN3M                           00000001
C12IN3N                           00000001
C1CH0                             00000000
C1CH1                             00000001
C1HYS                             00000003
C1IE                              00000006
C1IF                              00000006
C1INP                             00000003
C1IP                              00000006
C1OE                              00000005
C1ON                              00000007
C1OUT_CM1CON                      00000006
C1OUT_CM1CON0                     00000006
C1OUT_PORTA                       00000004
C1POL                             00000004
C1R                               00000002
C1RSEL                            00000005
C1SP                              00000003
C1SYNC                            00000001
C1TSEL0                           00000000
C1TSEL1                           00000001
C2CH0                             00000000
C2CH1                             00000001
C2HYS                             00000002
C2IE                              00000005
C2IF                              00000005
C2INP                             00000002
C2IP                              00000005
C2OE                              00000005
C2ON                              00000007
C2OUT_CM2CON                      00000006
C2OUT_CM2CON0                     00000006
C2OUT_PORTA                       00000005
C2POL                             00000004
C2R                               00000002
C2RSEL                            00000004
C2SP                              00000003
C2SYNC                            00000000
C2TSEL0                           00000003
C2TSEL1                           00000004
C3TSEL0                           00000006
C3TSEL1                           00000007
C4TSEL0                           00000000
C4TSEL1                           00000001
C5TSEL0                           00000002
C5TSEL1                           00000003
CCP1                              00000002
CCP1AS0                           00000004
CCP1AS1                           00000005
CCP1AS2                           00000006
CCP1ASE                           00000007
CCP1CON                           00000FBD
CCP1IE                            00000002
CCP1IF                            00000002
CCP1IP                            00000002
CCP1M0                            00000000
CCP1M1                            00000001
CCP1M2                            00000002
CCP1M3                            00000003
CCP1MD                            00000000
CCP2AS                            00000F64
CCP2AS0                           00000004
CCP2AS1                           00000005
CCP2AS2                           00000006
CCP2ASE                           00000007
CCP2CON                           00000F66
CCP2IE                            00000000
CCP2IF                            00000000
CCP2IP                            00000000
CCP2M0                            00000000
CCP2M1                            00000001
CCP2M2                            00000002
CCP2M3                            00000003
CCP2MD                            00000001
CCP2MX_PORTB3_3                   000000FE
CCP2MX_PORTC1_3                   000000FF
CCP2_PORTB                        00000003
CCP2_PORTC                        00000001
CCP3AS                            00000F5B
CCP3AS0                           00000004
CCP3AS1                           00000005
CCP3AS2                           00000006
CCP3ASE                           00000007
CCP3CON                           00000F5D
CCP3IE                            00000000
CCP3IF                            00000000
CCP3IP                            00000000
CCP3M0                            00000000
CCP3M1                            00000001
CCP3M2                            00000002
CCP3M3                            00000003
CCP3MD                            00000002
CCP3MX_PORTB5_3                   000000FF
CCP3MX_PORTC6_3                   000000FB
CCP3_PORTB                        00000005
CCP3_PORTC                        00000006
CCP4                              00000000
CCP4CON                           00000F57
CCP4IE                            00000001
CCP4IF                            00000001
CCP4IP                            00000001
CCP4M0                            00000000
CCP4M1                            00000001
CCP4M2                            00000002
CCP4M3                            00000003
CCP4MD                            00000003
CCP5                              00000004
CCP5CON                           00000F54
CCP5IE                            00000002
CCP5IF                            00000002
CCP5IP                            00000002
CCP5M0                            00000000
CCP5M1                            00000001
CCP5M2                            00000002
CCP5M3                            00000003
CCP5MD                            00000004
CCPR1                             00000FBE
CCPR1H                            00000FBF
CCPR1L                            00000FBE
CCPR1LH                           00000FBF
CCPR2                             00000F67
CCPR2H                            00000F68
CCPR2L                            00000F67
CCPR2LH                           00000F68
CCPR3                             00000F5E
CCPR3H                            00000F5F
CCPR3L                            00000F5E
CCPR3LH                           00000F5F
CCPR4                             00000F58
CCPR4H                            00000F59
CCPR4L                            00000F58
CCPR4LH                           00000F59
CCPR5                             00000F55
CCPR5H                            00000F56
CCPR5L                            00000F55
CCPR5LH                           00000F56
CCPTMRS0                          00000F49
CCPTMRS1                          00000F48
CFGS                              00000006
CIKIS_GUCU                        00000038
CIKIS_GUCUH                       00000039
CK                                00000006
CK1                               00000006
CK2                               00000006
CKE                               00000006
CKP                               SSPCON1,4
CKTXP                             00000004
CLRC                              bcf STATUS,0
CLRW                              clrf WREG
CLRZ                              bcf STATUS,2
CM12CON                           00000F77
CM1CON                            00000F79
CM1CON0                           00000F79
CM2CON                            00000F78
CM2CON0                           00000F78
CM2CON1                           00000F77
CMP1MD                            00000001
CMP2MD                            00000002
CONFIG1H                          00300001
CONFIG2H                          00300003
CONFIG2L                          00300002
CONFIG3H                          00300005
CONFIG4L                          00300006
CONFIG5H                          00300009
CONFIG5L                          00300008
CONFIG6H                          0030000B
CONFIG6L                          0030000A
CONFIG7H                          0030000D
CONFIG7L                          0030000C
CONFIG_REQ                        1
CP0_OFF_5                         000000FF
CP0_ON_5                          000000FE
CP1_OFF_5                         000000FF
CP1_ON_5                          000000FD
CP2_OFF_5                         000000FF
CP2_ON_5                          000000FB
CP3_OFF_5                         000000FF
CP3_ON_5                          000000F7
CP@LB2                            00000318
CP@LB3                            00000332
CPB_OFF_5                         000000FF
CPB_ON_5                          000000BF
CPD_OFF_5                         000000FF
CPD_ON_5                          0000007F
CREN                              00000004
CSRC                              00000007
CT@LB18                           00000470
CT@LB21                           0000053E
CT@LB27                           0000067A
CTED1                             00000002
CTED2                             00000003
CTMUCON0                          00000F45
CTMUCON1                          00000F44
CTMUCONH                          00000F45
CTMUCONL                          00000F44
CTMUCONLH                         00000F45
CTMUEN                            00000007
CTMUICON                          00000F43
CTMUICONH                         00000F43
CTMUIE                            00000003
CTMUIF                            00000003
CTMUIP                            00000003
CTMUMD                            00000003
CTMUSIDL                          00000005
CTPLS                             00000002
CTTRIG                            00000000
CVREF                             00000002
D@K                               00000220
DACCON0                           00000F41
DACCON1                           00000F40
DACEN                             00000007
DACLPS                            00000006
DACNSS                            00000000
DACOE                             00000005
DACOUT                            00000002
DACPSS0                           00000002
DACPSS1                           00000003
DACR0                             00000000
DACR1                             00000001
DACR2                             00000002
DACR3                             00000003
DACR4                             00000004
DATAIN                            00000043
DATAOUT                           0000002F
DATAOUTH                          00000030
DATAOUTHH                         00000031
DATAOUTHHH                        00000032
DC                                00000001
DC1B0                             00000004
DC1B1                             00000005
DC2B0                             00000004
DC2B1                             00000005
DC3B0                             00000004
DC3B1                             00000005
DC4B0                             00000004
DC4B1                             00000005
DC5B0                             00000004
DC5B1                             00000005
DDRA                              00000F92
DDRB                              00000F93
DDRC                              00000F94
DEBUG_OFF_4                       000000FF
DEBUG_ON_4                        0000007F
DEVID1                            003FFFFE
DEVID2                            003FFFFF
DHEN                              00000000
DLY@P                             000001C0
DONE                              00000001
DONGUSAY                          00000101
DT1                               00000007
DT2                               00000007
DTMF                              000000F5
DTMF#0                            000000F5
DTMF#1                            000000F6
DTMF#10                           000000FF
DTMF#11                           00000100
DTMF#2                            000000F7
DTMF#3                            000000F8
DTMF#4                            000000F9
DTMF#5                            000000FA
DTMF#6                            000000FB
DTMF#7                            000000FC
DTMF#8                            000000FD
DTMF#9                            000000FE
DTMFBATT                          000000F3
DTMFBATT#0                        000000F3
DTMFBATT#1                        000000F4
DTMFSTAT                          000000F2
DTRXP                             00000005
DUMMY                             000000EC
DURUM                             00000047
DUTYCYCLE                         00000049
DV@LP                             00000206
DWORD_BIT                         
DWORD_BYTE                        
DWORD_DWORD                       
DWORD_FLOAT                       
DWORD_WORD                        
DWORD_WREG                        
DY                                00000042
D_A                               SSPSTAT,5
D_NOT_A                           00000005
EBTR0_OFF_7                       000000FF
EBTR0_ON_7                        000000FE
EBTR1_OFF_7                       000000FF
EBTR1_ON_7                        000000FD
EBTR2_OFF_7                       000000FF
EBTR2_ON_7                        000000FB
EBTR3_OFF_7                       000000FF
EBTR3_ON_7                        000000F7
EBTRB_OFF_7                       000000FF
EBTRB_ON_7                        000000BF
ECCP1AS                           00000FB6
ECCP2AS                           00000F64
ECCP3AS                           00000F5B
ECCPAS                            00000FB6
ECCPAS0                           00000004
ECCPAS1                           00000005
ECCPAS2                           00000006
ECCPASE                           00000007
EDG1POL                           00000004
EDG1SEL0                          00000002
EDG1SEL1                          00000003
EDG1STAT                          00000000
EDG2POL                           00000007
EDG2SEL0                          00000005
EDG2SEL1                          00000006
EDG2STAT                          00000001
EDGEN                             00000003
EDGSEQEN                          00000002
EEADR                             00000FA9
EEADR0                            00000000
EEADR1                            00000001
EEADR2                            00000002
EEADR3                            00000003
EEADR4                            00000004
EEADR5                            00000005
EEADR6                            00000006
EEADR7                            00000007
EEADRH                            00000FAA
EECON1                            00000FA6
EECON2                            00000FA7
EEDATA                            00000FA8
EEDATL                            00000FA8
EEIE                              00000004
EEIF                              00000004
EEIP                              00000004
EEPGD                             00000007
EPSSTATUS                         000000EE
EPS_ADCVAL                        0000004C
EPS_ADCVAL#0                      0000004C
EPS_ADCVAL#0H                     0000004D
EPS_ADCVAL#1                      0000004E
EPS_ADCVAL#10                     00000060
EPS_ADCVAL#10H                    00000061
EPS_ADCVAL#11                     00000062
EPS_ADCVAL#11H                    00000063
EPS_ADCVAL#12                     00000064
EPS_ADCVAL#12H                    00000065
EPS_ADCVAL#13                     00000066
EPS_ADCVAL#13H                    00000067
EPS_ADCVAL#14                     00000068
EPS_ADCVAL#14H                    00000069
EPS_ADCVAL#15                     0000006A
EPS_ADCVAL#15H                    0000006B
EPS_ADCVAL#16                     0000006C
EPS_ADCVAL#16H                    0000006D
EPS_ADCVAL#17                     0000006E
EPS_ADCVAL#17H                    0000006F
EPS_ADCVAL#18                     00000070
EPS_ADCVAL#18H                    00000071
EPS_ADCVAL#19                     00000072
EPS_ADCVAL#19H                    00000073
EPS_ADCVAL#1H                     0000004F
EPS_ADCVAL#2                      00000050
EPS_ADCVAL#20                     00000074
EPS_ADCVAL#20H                    00000075
EPS_ADCVAL#21                     00000076
EPS_ADCVAL#21H                    00000077
EPS_ADCVAL#22                     00000078
EPS_ADCVAL#22H                    00000079
EPS_ADCVAL#23                     0000007A
EPS_ADCVAL#23H                    0000007B
EPS_ADCVAL#24                     0000007C
EPS_ADCVAL#24H                    0000007D
EPS_ADCVAL#25                     0000007E
EPS_ADCVAL#25H                    0000007F
EPS_ADCVAL#26                     00000080
EPS_ADCVAL#26H                    00000081
EPS_ADCVAL#27                     00000082
EPS_ADCVAL#27H                    00000083
EPS_ADCVAL#28                     00000084
EPS_ADCVAL#28H                    00000085
EPS_ADCVAL#29                     00000086
EPS_ADCVAL#29H                    00000087
EPS_ADCVAL#2H                     00000051
EPS_ADCVAL#3                      00000052
EPS_ADCVAL#30                     00000088
EPS_ADCVAL#30H                    00000089
EPS_ADCVAL#31                     0000008A
EPS_ADCVAL#31H                    0000008B
EPS_ADCVAL#3H                     00000053
EPS_ADCVAL#4                      00000054
EPS_ADCVAL#4H                     00000055
EPS_ADCVAL#5                      00000056
EPS_ADCVAL#5H                     00000057
EPS_ADCVAL#6                      00000058
EPS_ADCVAL#6H                     00000059
EPS_ADCVAL#7                      0000005A
EPS_ADCVAL#7H                     0000005B
EPS_ADCVAL#8                      0000005C
EPS_ADCVAL#8H                     0000005D
EPS_ADCVAL#9                      0000005E
EPS_ADCVAL#9H                     0000005F
EPS_ADCVALBYTE                    0000008C
EPS_ADCVALBYTE#0                  0000008C
EPS_ADCVALBYTE#1                  0000008D
EPS_ADCVALBYTE#10                 00000096
EPS_ADCVALBYTE#11                 00000097
EPS_ADCVALBYTE#12                 00000098
EPS_ADCVALBYTE#13                 00000099
EPS_ADCVALBYTE#14                 0000009A
EPS_ADCVALBYTE#15                 0000009B
EPS_ADCVALBYTE#16                 0000009C
EPS_ADCVALBYTE#17                 0000009D
EPS_ADCVALBYTE#18                 0000009E
EPS_ADCVALBYTE#19                 0000009F
EPS_ADCVALBYTE#2                  0000008E
EPS_ADCVALBYTE#20                 000000A0
EPS_ADCVALBYTE#21                 000000A1
EPS_ADCVALBYTE#22                 000000A2
EPS_ADCVALBYTE#23                 000000A3
EPS_ADCVALBYTE#24                 000000A4
EPS_ADCVALBYTE#25                 000000A5
EPS_ADCVALBYTE#26                 000000A6
EPS_ADCVALBYTE#27                 000000A7
EPS_ADCVALBYTE#28                 000000A8
EPS_ADCVALBYTE#29                 000000A9
EPS_ADCVALBYTE#3                  0000008F
EPS_ADCVALBYTE#30                 000000AA
EPS_ADCVALBYTE#31                 000000AB
EPS_ADCVALBYTE#32                 000000AC
EPS_ADCVALBYTE#33                 000000AD
EPS_ADCVALBYTE#34                 000000AE
EPS_ADCVALBYTE#35                 000000AF
EPS_ADCVALBYTE#36                 000000B0
EPS_ADCVALBYTE#37                 000000B1
EPS_ADCVALBYTE#38                 000000B2
EPS_ADCVALBYTE#39                 000000B3
EPS_ADCVALBYTE#4                  00000090
EPS_ADCVALBYTE#40                 000000B4
EPS_ADCVALBYTE#41                 000000B5
EPS_ADCVALBYTE#42                 000000B6
EPS_ADCVALBYTE#43                 000000B7
EPS_ADCVALBYTE#44                 000000B8
EPS_ADCVALBYTE#45                 000000B9
EPS_ADCVALBYTE#46                 000000BA
EPS_ADCVALBYTE#47                 000000BB
EPS_ADCVALBYTE#48                 000000BC
EPS_ADCVALBYTE#49                 000000BD
EPS_ADCVALBYTE#5                  00000091
EPS_ADCVALBYTE#50                 000000BE
EPS_ADCVALBYTE#51                 000000BF
EPS_ADCVALBYTE#52                 000000C0
EPS_ADCVALBYTE#53                 000000C1
EPS_ADCVALBYTE#54                 000000C2
EPS_ADCVALBYTE#55                 000000C3
EPS_ADCVALBYTE#56                 000000C4
EPS_ADCVALBYTE#57                 000000C5
EPS_ADCVALBYTE#58                 000000C6
EPS_ADCVALBYTE#59                 000000C7
EPS_ADCVALBYTE#6                  00000092
EPS_ADCVALBYTE#60                 000000C8
EPS_ADCVALBYTE#61                 000000C9
EPS_ADCVALBYTE#62                 000000CA
EPS_ADCVALBYTE#63                 000000CB
EPS_ADCVALBYTE#7                  00000093
EPS_ADCVALBYTE#8                  00000094
EPS_ADCVALBYTE#9                  00000095
EPS_ADCVALH                       0000004D
F1_000051                         00000250
F1_000057                         00000252
F1_000060                         00000256
F1_000071                         0000026A
F1_000072                         0000026C
F1_000073                         0000026E
F1_000074                         00000270
F1_000075                         00000272
F1_000076                         00000274
F1_000078                         00000276
F1_000079                         00000278
F1_000080                         0000027A
F1_000081                         0000027C
F1_000082                         0000027E
F1_000083                         00000280
F1_000084                         00000282
F1_000085                         00000284
F1_000087                         00000286
F1_000088                         00000288
F1_000089                         0000028A
F1_000090                         0000028C
F1_000091                         0000028E
F1_000092                         00000290
F1_000093                         00000292
F1_000094                         00000294
F1_000133                         00000296
F1_000137                         00000298
F1_000182                         0000029C
F1_000191                         0000029E
F1_000193                         000002A6
F1_000195                         000002A8
F1_000196                         000002AA
F1_000197                         000002AC
F1_000199                         000002AE
F1_000200                         000002B0
F1_000202                         000002B2
F1_000208                         000002B4
F1_000212                         000002B6
F1_000215                         000002B8
F1_000218                         000002BA
F1_000220                         000002CA
F1_000225                         000002D0
F1_000227                         000002D6
F1_000229                         000002D8
F1_000230                         000002EE
F1_000231                         000002F0
F1_000232                         000002F8
F1_000233                         000002FA
F1_000234                         000002FC
F1_000235                         00000300
F1_000237                         00000318
F1_000238                         0000031C
F1_000239                         00000320
F1_000240                         00000332
F1_000241                         00000336
F1_000242                         00000338
F1_000243                         00000344
F1_000244                         00000346
F1_000245                         00000348
F1_000246                         00000352
F1_000247                         00000354
F1_000248                         00000356
F1_000249                         00000356
F1_000250                         00000356
F1_000251                         00000356
F1_000252                         00000356
F1_000254                         00000356
F1_000256                         00000358
F1_000260                         0000035E
F1_000261                         00000362
F1_000262                         00000364
F1_000263                         00000366
F1_000266                         00000368
F1_000267                         0000036C
F1_000268                         00000370
F1_000269                         00000374
F1_000270                         00000378
F1_000271                         0000037C
F1_000276                         00000380
F1_000277                         0000038A
F1_000278                         0000038E
F1_000279                         00000392
F1_000280                         00000396
F1_000282                         00000396
F1_000295                         0000039A
F1_000296                         000003A4
F1_000297                         000003B2
F1_000312                         000003C8
F1_000315                         000003CC
F1_000319                         000003D0
F1_000320                         000003E8
F1_000321                         000003EC
F1_000322                         00000406
F1_000330                         0000040A
F1_000331                         0000041C
F1_000332                         0000043A
F1_000333                         0000043E
F1_000334                         0000046C
F1_000335                         00000470
F1_000345                         0000047A
F1_000346                         0000047E
F1_000347                         00000496
F1_000348                         0000049A
F1_000349                         000004BE
F1_000350                         000004C2
F1_000355                         000004C6
F1_000356                         000004D8
F1_000357                         00000508
F1_000358                         0000053E
F1_000360                         00000548
F1_000361                         00000584
F1_000383                         00000588
F1_000384                         00000592
F1_000385                         0000059E
F1_000386                         000005AA
F1_000467                         000005B6
F1_000473                         000005BA
F1_000477                         000005C4
F1_000483                         000005C6
F1_000485                         000005D0
F1_000489                         000005D2
F1_000490                         000005DE
F1_000491                         000005E2
F1_000492                         000005F0
F1_000493                         000005F4
F1_000494                         00000602
F1_000495                         00000606
F1_000496                         00000614
F1_000497                         00000618
F1_000501                         0000061A
F1_000502                         00000628
F1_000503                         0000062C
F1_000504                         0000064A
F1_000505                         00000654
F1_000506                         0000065E
F1_000507                         00000662
F1_000508                         0000066C
F1_000509                         00000670
F1_000510                         0000067A
F1_000512                         00000680
F1_000513                         00000684
F1_000514                         0000068E
F1_000515                         00000692
F1_000517                         0000069C
F1_EOF                            0000069E
F1_SOF                            00000250
F2_EOF                            00000250
F2_SOF                            00000250
F@CALL                            
F@JUMP                            
FCMEN_OFF_1                       000000BF
FCMEN_ON_1                        000000FF
FERR                              00000002
FLOAT_BIT                         
FLOAT_BYTE                        
FLOAT_DWORD                       
FLOAT_FLOAT                       
FLOAT_WORD                        
FLOAT_WREG                        
FLT0                              00000000
FOSC_ECHPIO6_1                    000000F5
FOSC_ECHP_1                       000000F4
FOSC_ECLPIO6_1                    000000FD
FOSC_ECLP_1                       000000FC
FOSC_ECMPIO6_1                    000000FB
FOSC_ECMP_1                       000000FA
FOSC_HSHP_1                       000000F2
FOSC_HSMP_1                       000000F3
FOSC_INTIO67_1                    000000F8
FOSC_INTIO7_1                     000000F9
FOSC_LP_1                         000000F0
FOSC_RCIO6_1                      000000F7
FOSC_RC_1                         000000F6
FOSC_XT_1                         000000F1
FR@LB16                           0000040E
FR@LB19                           000004CA
FR@LB25                           0000061E
FREE                              00000004
FREK1                             0000001D
FREK1H                            0000001E
FREK2                             0000001F
FREK2H                            00000020
FSR0H                             00000FEA
FSR0L                             00000FE9
FSR0LH                            00000FEA
FSR1H                             00000FE2
FSR1L                             00000FE1
FSR1LH                            00000FE2
FSR2H                             00000FDA
FSR2L                             00000FD9
FSR2LH                            00000FDA
FVRCON                            00000F42
FVREN                             00000007
FVRS0                             00000004
FVRS1                             00000005
FVRST                             00000006
G@OTO                             
GCEN                              00000007
GEN                               00000001
GEN2                              00000002
GEN2H                             00000003
GENH                              00000004
GIE                               INTCON,7
GIEH                              00000007
GIEL                              00000006
GIE_GIEH                          00000007
GO@TO                             
GO_DONE                           00000001
GO_NOT_DONE                       00000001
GPR                               00000005
HFIOFS                            00000002
HFOFST_OFF_3                      000000F7
HFOFST_ON_3                       000000FF
HLVDCON                           00000F9C
HLVDEN                            00000004
HLVDIE                            00000002
HLVDIF                            00000002
HLVDIN                            00000005
HLVDIP                            00000002
HLVDL0                            00000000
HLVDL1                            00000001
HLVDL2                            00000002
HLVDL3                            00000003
HPW@2L                            0000008E
HPW@2S                            0000008C
HPW@SK1                           0000007A
HPWM@FIN                          00000076
HR                                00000041
I2C@CH                            0000015E
I2C@CL                            00000154
I2C@DH                            00000100
I2C@DL                            0000010E
I2C@GB                            00000146
I2C@HD                            00000160
I2C@HH                            0000010A
I2C@LH                            0000011C
I2C@OB                            0000012C
I2C@OUTC                          000000DC
I2C@STP                           000000F2
I2C@STT                           0000011E
I2C@WL                            00000116
I2CIN                             0000009C
I2CIN2                            00000098
I2CIN@I                           000000A8
I2CIN@LP                          000000AC
I2COUT                            000000CC
I2COUT2                           000000C8
I2COUT@I                          000000EA
I2COUT@LP                         00000132
IDISSEN                           00000001
IDLEN                             00000007
IDLOC0                            00200000
IDLOC1                            00200001
IDLOC2                            00200002
IDLOC3                            00200003
IDLOC4                            00200004
IDLOC5                            00200005
IDLOC6                            00200006
IDLOC7                            00200007
IESO_OFF_1                        0000007F
IESO_ON_1                         000000FF
INDF0                             00000FEF
INDF1                             00000FE7
INDF2                             00000FDF
INT0                              00000000
INT0E                             00000004
INT0F                             00000001
INT0IE                            00000004
INT0IF                            00000001
INT1                              00000001
INT1E                             00000003
INT1F                             00000000
INT1IE                            00000003
INT1IF                            00000000
INT1IP                            00000006
INT1P                             00000006
INT2                              00000002
INT2E                             00000004
INT2F                             00000001
INT2IE                            00000004
INT2IF                            00000001
INT2IP                            00000007
INT2P                             00000007
INTCON                            00000FF2
INTCON2                           00000FF1
INTCON3                           00000FF0
INTEDG0                           00000006
INTEDG1                           00000005
INTEDG2                           00000004
INTERRUPTSECTION                  000002D0
INTSRC                            00000007
IOCB                              00000F62
IOCB4                             00000004
IOCB5                             00000005
IOCB6                             00000006
IOCB7                             00000007
IOFS                              00000002
IPEN                              00000007
IPR1                              00000F9F
IPR2                              00000FA2
IPR3                              00000FA5
IPR4                              00000F7C
IPR5                              00000F7F
IRCF0                             00000004
IRCF1                             00000005
IRCF2                             00000006
IRNG0                             00000000
IRNG1                             00000001
IRVST                             00000005
ITRIM0                            00000002
ITRIM1                            00000003
ITRIM2                            00000004
ITRIM3                            00000005
ITRIM4                            00000006
ITRIM5                            00000007
IVRST                             00000005
JUMP                              
KBI0                              00000004
KBI1                              00000005
KBI2                              00000006
KBI3                              00000007
LAB                               1
LABEL_POINTER                     
LABEL_WORD                        
LASTDATA                          00000044
LATA                              00000F89
LATA0                             00000000
LATA1                             00000001
LATA2                             00000002
LATA3                             00000003
LATA4                             00000004
LATA5                             00000005
LATA6                             00000006
LATA7                             00000007
LATB                              00000F8A
LATB0                             00000000
LATB1                             00000001
LATB2                             00000002
LATB3                             00000003
LATB4                             00000004
LATB5                             00000005
LATB6                             00000006
LATB7                             00000007
LATC                              00000F8B
LATC0                             00000000
LATC1                             00000001
LATC2                             00000002
LATC3                             00000003
LATC4                             00000004
LATC5                             00000005
LATC6                             00000006
LATC7                             00000007
LCD#TYPE                          0
LD29300ENABLE                     PORTC,0
LFIOFS                            00000000
LVDCON                            00000F9C
LVDEN                             00000004
LVDIE                             00000002
LVDIF                             00000002
LVDIN                             00000005
LVDIP                             00000002
LVDL0                             00000000
LVDL1                             00000001
LVDL2                             00000002
LVDL3                             00000003
LVP_OFF_4                         000000FB
LVP_ON_4                          000000FF
LVV0                              00000000
LVV1                              00000001
LVV2                              00000002
LVV3                              00000003
MAIN                              000003C8
MC1OUT                            00000007
MC2OUT                            00000006
MCLR                              00000003
MCLRE_EXTMCLR_3                   000000FF
MCLRE_INTMCLR_3                   0000007F
MFIOFS                            00000001
MFIOSEL                           00000004
MN                                00000040
MOVFW                             
MS                                0000003C
MSH                               0000003D
MSK0                              00000000
MSK1                              00000001
MSK2                              00000002
MSK3                              00000003
MSK4                              00000004
MSK5                              00000005
MSK6                              00000006
MSK7                              00000007
MSSP1MD                           00000006
MSSP2MD                           00000007
MYSCL1                            PORTC,3
MYSCL2                            PORTB,1
MYSDA1                            PORTC,4
MYSDA2                            PORTB,2
N                                 00000004
NEGW                              negf WREG
NOT_A                             00000005
NOT_ADDRESS                       00000005
NOT_BOR                           00000000
NOT_DONE                          00000001
NOT_MCLR                          00000003
NOT_PD                            00000002
NOT_POR                           00000001
NOT_RBPU                          00000007
NOT_RI                            00000004
NOT_SS                            00000005
NOT_SS1                           00000005
NOT_SS2                           00000000
NOT_T1SYNC                        00000002
NOT_T3SYNC                        00000002
NOT_T5SYNC                        00000002
NOT_TO                            00000003
NOT_W                             00000002
NOT_WRITE                         00000002
NUM16_SFR                         
NUM_BIT                           
NUM_BYTE                          
NUM_DWORD                         
NUM_FLOAT                         
NUM_FSR0                          
NUM_FSR1                          
NUM_FSR2                          
NUM_SFR                           
NUM_WORD                          
NUM_WREG                          
NVCFG0                            00000000
NVCFG1                            00000001
NX@LB17                           0000047A
NX@LB20                           00000548
NX@LB26                           00000680
OERR                              00000001
OSCCON                            00000FD3
OSCCON2                           00000FD2
OSCFIE                            00000007
OSCFIF                            00000007
OSCFIP                            00000007
OSCTUNE                           00000F9B
OSTS                              00000003
OV                                00000003
P1A                               00000002
P1B                               00000002
P1C                               00000001
P1D                               00000004
P1DC0                             00000000
P1DC1                             00000001
P1DC2                             00000002
P1DC3                             00000003
P1DC4                             00000004
P1DC5                             00000005
P1DC6                             00000006
P1M0                              00000006
P1M1                              00000007
P1RSEN                            00000007
P2A_PORTB                         00000003
P2A_PORTC                         00000001
P2BMX_PORTB5_3                    000000FF
P2BMX_PORTC0_3                    000000DF
P2B_PORTB                         00000005
P2B_PORTC                         00000000
P2DC0                             00000000
P2DC1                             00000001
P2DC2                             00000002
P2DC3                             00000003
P2DC4                             00000004
P2DC5                             00000005
P2DC6                             00000006
P2M0                              00000006
P2M1                              00000007
P2RSEN                            00000007
P3A_PORTB                         00000005
P3A_PORTC                         00000006
P3B                               00000007
P3DC0                             00000000
P3DC1                             00000001
P3DC2                             00000002
P3DC3                             00000003
P3DC4                             00000004
P3DC5                             00000005
P3DC6                             00000006
P3M0                              00000006
P3M1                              00000007
P3RSEN                            00000007
PB@LB24                           0000056C
PB@LB30                           0000069E
PBADEN_OFF_3                      000000FD
PBADEN_ON_3                       000000FF
PBP#VAR0                          00000006
PBP#VAR0H                         00000007
PBP#VAR0HH                        00000008
PBP#VAR0HHH                       00000009
PBP#VAR1                          0000000A
PBP#VAR2                          0000000B
PBP#VAR2H                         0000000C
PC                                00000FF9
PCIE                              00000006
PCL                               00000FF9
PCLATH                            00000FFA
PCLATU                            00000FFB
PD                                00000002
PDC0                              00000000
PDC1                              00000001
PDC2                              00000002
PDC3                              00000003
PDC4                              00000004
PDC5                              00000005
PDC6                              00000006
PEIE                              INTCON,6
PEIE_GIEL                         00000006
PEN                               00000002
PGC                               00000006
PGD                               00000007
PIE1                              00000F9D
PIE2                              00000FA0
PIE3                              00000FA3
PIE4                              00000F7A
PIE5                              00000F7D
PIR1                              00000F9E
PIR2                              00000FA1
PIR3                              00000FA4
PIR4                              00000F7B
PIR5                              00000F7E
PLLCFG_OFF_1                      000000EF
PLLCFG_ON_1                       000000FF
PLLCLK                            PORTB,3
PLLDATA                           PORTB,4
PLLEN                             00000006
PLLGONDER                         0000061A
PLLLD                             PORTA,3
PLLLE                             PORTB,5
PLLPSIF                           PORTB,7
PLLPSRF                           PORTB,6
PLLRDY                            00000007
PLLYAZ_LATCH                      _B#VR1,0
PLL_PROGRAMLA                     000005D2
PLUSW0                            00000FEB
PLUSW1                            00000FE3
PLUSW2                            00000FDB
PMD0                              00000F3F
PMD1                              00000F3E
PMD2                              00000F3D
POR                               00000001
PORTA                             00000F80
PORTB                             00000F81
PORTC                             00000F82
PORTE                             00000F84
POSTDEC0                          00000FED
POSTDEC1                          00000FE5
POSTDEC2                          00000FDD
POSTINC0                          00000FEE
POSTINC1                          00000FE6
POSTINC2                          00000FDE
PP0                               0000000D
PP0H                              0000000E
PP1                               0000000F
PP1H                              00000010
PP2                               00000011
PP2H                              00000012
PP3                               00000013
PP3H                              00000014
PP4                               00000015
PP4H                              00000016
PP5                               00000017
PP7                               00000018
PP7H                              00000019
PP_ACKDT                          00000005
PP_ACKEN                          00000004
PP_ADON                           00000000
PP_CREN                           00000004
PP_EEPGD                          00000007
PP_GO_DONE                        00000001
PP_GO_NOT_DONE                    00000001
PP_OERR                           00000001
PP_PEN                            00000002
PP_RCEN                           00000003
PP_RCIF                           00000005
PP_RD                             00000000
PP_RD16                           00000001
PP_RSEN                           00000001
PP_R_NOT_W                        00000002
PP_R_W                            00000002
PP_SEN                            00000000
PP_SENDB                          00000003
PP_T2CKPS0                        00000000
PP_T2CKPS1                        00000001
PP_TMR2ON                         00000002
PP_TMR4ON                         00000002
PP_TXIF                           00000004
PP_WR                             00000001
PP_WREN                           00000002
PP_WRERR                          00000003
PR2                               00000FBB
PR4                               00000F52
PR6                               00000F4B
PRE                               0000002D
PRE2                              0000002E
PREINC0                           00000FEC
PREINC1                           00000FE4
PREINC2                           00000FDC
PREMAIN                           0000035E
PRICLKEN_OFF_1                    000000DF
PRICLKEN_ON_1                     000000FF
PRISD                             00000002
PRODH                             00000FF4
PRODL                             00000FF3
PRODLH                            00000FF4
PROTON#CODE#START                 00000000
PROTON#MAIN#START                 0000024C
PRSEN                             00000007
PSA                               00000003
PSS1AC0                           00000002
PSS1AC1                           00000003
PSS1BD0                           00000000
PSS1BD1                           00000001
PSS2AC0                           00000002
PSS2AC1                           00000003
PSS2BD0                           00000000
PSS2BD1                           00000001
PSS3AC0                           00000002
PSS3AC1                           00000003
PSS3BD0                           00000000
PSS3BD1                           00000001
PSSAC0                            00000002
PSSAC1                            00000003
PSSBD0                            00000000
PSSBD1                            00000001
PSTR1CON                          00000FB9
PSTR2CON                          00000F63
PSTR3CON                          00000F5A
PSTRCON                           00000FB9
PVCFG0                            00000002
PVCFG1                            00000003
PWM1CON                           00000FB7
PWM2CON                           00000F65
PWM3CON                           00000F5C
PWMCON                            00000FB7
PWM_VAL                           00000037
PWRLED                            PORTA,5
PWRTEN_OFF_2                      000000FF
PWRTEN_ON_2                       000000FE
R@B                               
RA0                               00000000
RA1                               00000001
RA2                               00000002
RA3                               00000003
RA4                               00000004
RA5                               00000005
RA6                               00000006
RA7                               00000007
RAM_BANK                          00000000
RAM_BANKS                         0
RB0                               00000000
RB1                               00000001
RB2                               00000002
RB3                               00000003
RB4                               00000004
RB5                               00000005
RB6                               00000006
RB7                               00000007
RBIE                              00000003
RBIF                              00000000
RBIP                              00000000
RBPU                              00000007
RC0                               00000000
RC1                               00000001
RC1IE                             00000005
RC1IF                             00000005
RC1IP                             00000005
RC1REG                            00000FAE
RC1STA                            00000FAB
RC2                               00000002
RC2IE                             00000005
RC2IF                             00000005
RC2IP                             00000005
RC2REG                            00000F74
RC2STA                            00000F71
RC3                               00000003
RC4                               00000004
RC5                               00000005
RC6                               00000006
RC7                               00000007
RCEN                              00000003
RCIDL                             00000006
RCIE                              00000005
RCIF                              00000005
RCIP                              00000005
RCON                              00000FD0
RCREG                             00000FAE
RCREG1                            00000FAE
RCREG2                            00000F74
RCSTA                             00000FAB
RCSTA1                            00000FAB
RCSTA2                            00000F71
RD                                00000000
RD16                              00000001
RE3                               00000003
REF                               00000023
REFH                              00000024
RESET_COUNT                       0000004A
RESET_COUNTH                      0000004B
RESPONSE                          00000046
RI                                00000004
RLF                               
RRF                               
RSEN                              00000001
RX                                00000007
RX1                               00000007
RX2                               00000007
RX9                               00000006
RX9D                              00000000
R_NOT_W                           00000002
R_W                               SSPSTAT,2
S@B                               
SA                                3
SANIYEBEKLE                       00000034
SAYAC                             00000033
SBCDE                             00000002
SBOREN                            00000006
SCIE                              00000005
SCK                               00000003
SCK1                              00000003
SCK2                              00000001
SCKP                              00000004
SCL                               00000003
SCL1                              00000003
SCL2                              00000001
SCS0                              00000000
SCS1                              00000001
SDA                               00000004
SDA1                              00000004
SDA2                              00000002
SDAHT                             00000003
SDI                               00000004
SDI1                              00000004
SDI2                              00000002
SDO                               00000005
SDO1                              00000005
SDO2                              00000003
SEN                               SSP1CON2,0
SENDB                             00000003
SETC                              bsf STATUS,0
SETZ                              bsf STATUS,2
SKPC                              btfss STATUS,0
SKPNC                             btfsc STATUS,0
SKPNZ                             btfsc STATUS,2
SKPZ                              btfss STATUS,2
SLRA                              00000000
SLRB                              00000001
SLRC                              00000002
SLRCON                            00000F60
SMP                               SSPSTAT,7
SOSCGO                            00000003
SOSCRUN                           00000006
SP#P9                             0000001A
SP0                               00000000
SP1                               00000001
SP1BRG                            00000FAF
SP1BRGH                           00000FB0
SP2                               00000002
SP2BRG                            00000F75
SP2BRGH                           00000F76
SP3                               00000003
SP4                               00000004
SPBRG                             00000FAF
SPBRG1                            00000FAF
SPBRG1H                           00000FB0
SPBRG2                            00000F75
SPBRG2H                           00000F76
SPBRGH                            00000FB0
SPBRGH1                           00000FB0
SPBRGH2                           00000F76
SPEN                              00000007
SRCLK0                            00000004
SRCLK1                            00000005
SRCLK2                            00000006
SRCON0                            00000F47
SRCON1                            00000F46
SREN                              00000005
SRI                               00000000
SRLEN                             00000007
SRNQ                              00000005
SRNQEN                            00000002
SRPR                              00000000
SRPS                              00000001
SRQ                               00000004
SRQEN                             00000003
SRRC1E                            00000000
SRRC2E                            00000001
SRRCKE                            00000002
SRRPE                             00000003
SRSC1E                            00000004
SRSC2E                            00000005
SRSCKE                            00000006
SRSPE                             00000007
SS                                00000005
SS1                               00000005
SS2                               00000000
SSP1ADD                           00000FC8
SSP1BUF                           00000FC9
SSP1CON1                          00000FC6
SSP1CON2                          00000FC5
SSP1CON3                          00000FCB
SSP1IE                            00000003
SSP1IF                            00000003
SSP1IP                            00000003
SSP1MSK                           00000FCA
SSP1STAT                          00000FC7
SSP2ADD                           00000F6E
SSP2BUF                           00000F6F
SSP2CON1                          00000F6C
SSP2CON2                          00000F6B
SSP2CON3                          00000F69
SSP2IE                            00000007
SSP2IF                            00000007
SSP2IP                            00000007
SSP2MSK                           00000F6A
SSP2STAT                          00000F6D
SSPADD                            00000FC8
SSPBUF                            00000FC9
SSPCON1                           00000FC6
SSPCON2                           00000FC5
SSPCON3                           00000FCB
SSPEN                             SSPCON1,5
SSPIE                             PIE1,3
SSPIF                             PIR1,3
SSPIP                             IPR1,3
SSPM0                             00000000
SSPM1                             00000001
SSPM2                             00000002
SSPM3                             00000003
SSPMSK                            00000FCA
SSPOV                             SSPCON1,6
SSPSTAT                           00000FC7
STATE_INFO                        00000045
STATUS                            00000FD8
STKFUL                            00000007
STKOVF                            00000007
STKPTR                            00000FFC
STKUNF                            00000006
STP                               00000021
STPH                              00000022
STR1A                             00000000
STR1B                             00000001
STR1C                             00000002
STR1D                             00000003
STR1SYNC                          00000004
STR2A                             00000000
STR2B                             00000001
STR2C                             00000002
STR2D                             00000003
STR2SYNC                          00000004
STR3A                             00000000
STR3B                             00000001
STR3C                             00000002
STR3D                             00000003
STR3SYNC                          00000004
STVREN_OFF_4                      000000FE
STVREN_ON_4                       000000FF
SWDTE                             00000000
SWDTEN                            00000000
SYNC                              00000004
T08BIT                            00000006
T0CKI                             00000004
T0CON                             00000FD5
T0CS                              00000005
T0IE                              00000005
T0IF                              00000002
T0PS0                             00000000
T0PS1                             00000001
T0PS2                             00000002
T0SE                              00000004
T1CKI                             00000000
T1CKPS0                           00000004
T1CKPS1                           00000005
T1CON                             00000FCD
T1G                               00000005
T1GCON                            00000FCC
T1GGO                             00000003
T1GGO_NOT_DONE                    00000003
T1GPOL                            00000006
T1GSPM                            00000004
T1GSS0                            00000000
T1GSS1                            00000001
T1GTM                             00000005
T1GVAL                            00000002
T1G_DONE                          00000003
T1OSCEN                           00000003
T1OSI                             00000001
T1OSO                             00000000
T1RD16                            00000001
T1SOSCEN                          00000003
T1SYNC                            00000002
T2CKPS0                           00000000
T2CKPS1                           00000001
T2CON                             00000FBA
T2OUTPS0                          00000003
T2OUTPS1                          00000004
T2OUTPS2                          00000005
T2OUTPS3                          00000006
T3CKI_PORTB                       00000005
T3CKI_PORTC                       00000000
T3CKPS0                           00000004
T3CKPS1                           00000005
T3CMX_PORTB5_3                    000000EF
T3CMX_PORTC0_3                    000000FF
T3CON                             00000FB1
T3G                               00000000
T3GCON                            00000FB4
T3GGO                             00000003
T3GGO_NOT_DONE                    00000003
T3GPOL                            00000006
T3GSPM                            00000004
T3GSS0                            00000000
T3GSS1                            00000001
T3GTM                             00000005
T3GVAL                            00000002
T3G_DONE                          00000003
T3OSCEN                           00000003
T3RD16                            00000001
T3SOSCEN                          00000003
T4CKPS0                           00000000
T4CKPS1                           00000001
T4CON                             00000F51
T4OUTPS0                          00000003
T4OUTPS1                          00000004
T4OUTPS2                          00000005
T4OUTPS3                          00000006
T5CKI                             00000002
T5CKPS0                           00000004
T5CKPS1                           00000005
T5CON                             00000F4E
T5G                               00000004
T5GCON                            00000F4D
T5GGO                             00000003
T5GGO_NOT_DONE                    00000003
T5GPOL                            00000006
T5GSPM                            00000004
T5GSS0                            00000000
T5GSS1                            00000001
T5GTM                             00000005
T5GVAL                            00000002
T5G_DONE                          00000003
T5RD16                            00000001
T5SOSCEN                          00000003
T5SYNC                            00000002
T6CKPS0                           00000000
T6CKPS1                           00000001
T6CON                             00000F4A
T6OUTPS0                          00000003
T6OUTPS1                          00000004
T6OUTPS2                          00000005
T6OUTPS3                          00000006
TABLAT                            00000FF5
TBLPTRH                           00000FF7
TBLPTRL                           00000FF6
TBLPTRLH                          00000FF7
TBLPTRLHH                         00000FF8
TBLPTRLHHH                        00000FE8
TBLPTRU                           00000FF8
TGEN                              00000004
TIMER1                            TMR1L
TIMER1H                           TMR1LH
TMR0H                             00000FD7
TMR0IE                            00000005
TMR0IF                            00000002
TMR0IP                            00000002
TMR0L                             00000FD6
TMR0LH                            00000FD7
TMR0ON                            00000007
TMR1CS0                           00000006
TMR1CS1                           00000007
TMR1GE                            00000007
TMR1GIE                           00000000
TMR1GIF                           00000000
TMR1GIP                           00000000
TMR1H                             00000FCF
TMR1IE                            00000000
TMR1IF                            00000000
TMR1IP                            00000000
TMR1L                             00000FCE
TMR1LH                            00000FCF
TMR1MD                            00000000
TMR1ON                            00000000
TMR1_ENABLE                       PIE1,0
TMR1_MS                           1
TMR1_ON                           T1CON,0
TMR1_OVERFLOW                     PIR1,0
TMR1_VAL                          64536
TMR1_VALH                         252
TMR2                              00000FBC
TMR2IE                            00000001
TMR2IF                            00000001
TMR2IP                            00000001
TMR2MD                            00000001
TMR2ON                            00000002
TMR3CS0                           00000006
TMR3CS1                           00000007
TMR3GE                            00000007
TMR3GIE                           00000001
TMR3GIF                           00000001
TMR3GIP                           00000001
TMR3H                             00000FB3
TMR3IE                            00000001
TMR3IF                            00000001
TMR3IP                            00000001
TMR3L                             00000FB2
TMR3LH                            00000FB3
TMR3MD                            00000002
TMR3ON                            00000000
TMR4                              00000F53
TMR4IE                            00000000
TMR4IF                            00000000
TMR4IP                            00000000
TMR4MD                            00000003
TMR4ON                            00000002
TMR5                              00000F4F
TMR5CS0                           00000006
TMR5CS1                           00000007
TMR5GE                            00000007
TMR5GIE                           00000002
TMR5GIF                           00000002
TMR5GIP                           00000002
TMR5H                             00000F50
TMR5IE                            00000001
TMR5IF                            00000001
TMR5IP                            00000001
TMR5L                             00000F4F
TMR5LH                            00000F50
TMR5MD                            00000004
TMR5ON                            00000000
TMR6                              00000F4C
TMR6IE                            00000002
TMR6IF                            00000002
TMR6IP                            00000002
TMR6MD                            00000005
TMR6ON                            00000002
TO                                00000003
TOSH                              00000FFE
TOSL                              00000FFD
TOSLH                             00000FFE
TOSU                              00000FFF
TPS2421EN                         PORTA,4
TPS3823WDI                        PORTC,1
TPS_AKIM                          00000035
TPS_AKIMH                         00000036
TRANSPONDER_MODE                  0000001B
TRIGSEL                           00000007
TRISA                             00000F92
TRISA0                            00000000
TRISA1                            00000001
TRISA2                            00000002
TRISA3                            00000003
TRISA4                            00000004
TRISA5                            00000005
TRISA6                            00000006
TRISA7                            00000007
TRISB                             00000F93
TRISB0                            00000000
TRISB1                            00000001
TRISB2                            00000002
TRISB3                            00000003
TRISB4                            00000004
TRISB5                            00000005
TRISB6                            00000006
TRISB7                            00000007
TRISC                             00000F94
TRISC0                            00000000
TRISC1                            00000001
TRISC2                            00000002
TRISC3                            00000003
TRISC4                            00000004
TRISC5                            00000005
TRISC6                            00000006
TRISC7                            00000007
TRISE                             00000F96
TRMT                              00000001
TR_MD                             0000001C
TR_OFF                            2
TR_ON                             1
TUN0                              00000000
TUN1                              00000001
TUN2                              00000002
TUN3                              00000003
TUN4                              00000004
TUN5                              00000005
TX                                00000006
TX1                               00000006
TX1IE                             00000004
TX1IF                             00000004
TX1IP                             00000004
TX1REG                            00000FAD
TX1STA                            00000FAC
TX2                               00000006
TX2IE                             00000004
TX2IF                             00000004
TX2IP                             00000004
TX2REG                            00000F73
TX2STA                            00000F72
TX9                               00000006
TX9D                              00000000
TXEN                              00000005
TXIE                              00000004
TXIF                              00000004
TXIP                              00000004
TXREG                             00000FAD
TXREG1                            00000FAD
TXREG2                            00000F73
TXSTA                             00000FAC
TXSTA1                            00000FAC
TXSTA2                            00000F72
UA                                00000001
UART1MD                           00000006
UART2MD                           00000007
US                                0000003A
USH                               0000003B
UZAY                              0
VDIRMAG                           00000007
VERSIYON                          000000ED
VPP                               00000003
VREFCON0                          00000F42
VREFCON1                          00000F41
VREFCON2                          00000F40
VREFM                             00000002
VREFN                             00000002
VREFP                             00000003
WCOL                              SSPCON1,7
WDTCON                            00000FD1
WDTEN_NOSLP_2                     000000FD
WDTEN_OFF_2                       000000FC
WDTEN_ON_2                        000000FF
WDTEN_SWON_2                      000000FE
WDTPS_1024_2                      000000EB
WDTPS_128_2                       000000DF
WDTPS_16384_2                     000000FB
WDTPS_16_2                        000000D3
WDTPS_1_2                         000000C3
WDTPS_2048_2                      000000EF
WDTPS_256_2                       000000E3
WDTPS_2_2                         000000C7
WDTPS_32768_2                     000000FF
WDTPS_32_2                        000000D7
WDTPS_4096_2                      000000F3
WDTPS_4_2                         000000CB
WDTPS_512_2                       000000E7
WDTPS_64_2                        000000DB
WDTPS_8192_2                      000000F7
WDTPS_8_2                         000000CF
WORD_BIT                          
WORD_BYTE                         
WORD_DWORD                        
WORD_FLOAT                        
WORD_SDWORD                       
WORD_WORD                         
WORD_WREG                         
WPUB                              00000F61
WPUB0                             00000000
WPUB1                             00000001
WPUB2                             00000002
WPUB3                             00000003
WPUB4                             00000004
WPUB5                             00000005
WPUB6                             00000006
WPUB7                             00000007
WPUE3                             00000007
WR                                00000001
WREG                              00000FE8
WREG_BIT                          
WREG_BYTE                         
WREG_DWORD                        
WREG_FLOAT                        
WREG_SDWORD                       
WREG_SWORD                        
WREG_WORD                         
WREN                              00000002
WRERR                             00000003
WRT0_OFF_6                        000000FF
WRT0_ON_6                         000000FE
WRT1_OFF_6                        000000FF
WRT1_ON_6                         000000FD
WRT2_OFF_6                        000000FF
WRT2_ON_6                         000000FB
WRT3_OFF_6                        000000FF
WRT3_ON_6                         000000F7
WRTB_OFF_6                        000000FF
WRTB_ON_6                         000000BF
WRTC_OFF_6                        000000FF
WRTC_ON_6                         000000DF
WRTD_OFF_6                        000000FF
WRTD_ON_6                         0000007F
WUE                               00000001
XINST_OFF_4                       000000BF
XINST_ON_4                        000000FF
XTAL                              4
Z                                 00000002
_A                                00000025
_ADC                              19
_ADC_RES                          10
_AH                               00000026
_B#VR1                            00000048
_CORE                             16
_CWRITE_BLOCK                     32
_EEPROM                           256
_FLASH                            1
_HIGH__CONTEXT_STORE              00000103
_HIGH__CONTEXT_STORE#0            00000103
_I2C_SCL_PIN                      00000003
_I2C_SCL_PORT                     00000F94
_I2C_SDA_PIN                      00000004
_I2C_SDA_PORT                     00000F94
_MAXMEM                           0X4000
_MAXRAM                           768
_N                                00000027
_NH                               00000028
_R                                00000029
_RAM_END                          768
_RH                               0000002A
_S                                0000003E
_SH                               0000003F
_SYSTEM_VARIABLE_COUNT            27
_USART                            2
_USB                              0
_USB#RAM_START                    0
_X                                0000002B
_XH                               0000002C
__18F24K22                        1
__ADIN_                           00000190
__CCP1_PIN                        PORTC,2
__CCP2_PIN                        PORTC,7
__DELAY_MS_                       000001BC
__DELAY_MS_W_                     000001BE
__DELAY_US_                       000001D6
__DELAY_US_W_                     000001D8
__DIVIDE_INT_U1616_               00000202
__DIVIDE_U1616_                   000001FE
__EEREAD_                         0000016A
__EEREAD_W_                       0000016C
__EEWRITE_                        00000176
__EEWRITE_W_                      00000176
__EOF                             000006A0
__HIGH_INTERRUPTS_ENABLED         1
__HPWM_                           0000000C
__IDLOC0                          00200000
__IDLOC1                          00200001
__IDLOC2                          00200002
__IDLOC3                          00200003
__IDLOC4                          00200004
__IDLOC5                          00200005
__IDLOC6                          00200006
__IDLOC7                          00200007
__INTERRUPTS_ENABLED              1
__MULTIPLY_U1616_                 0000022C
__XTAL                            4


MEMORY USAGE MAP ('X' = USED,  '-' = UNUSED)

0000 : XXXX----XXXXXXXX XXXXXXXXXXXXXXXX XXXXXXXXXXXXXXXX XXXXXXXXXXXXXXXX
0040 : XXXXXXXXXXXXXXXX XXXXXXXXXXXXXXXX XXXXXXXXXXXXXXXX XXXXXXXXXXXXXXXX
0080 : XXXXXXXXXXXXXXXX XXXXXXXXXXXXXXXX XXXXXXXXXXXXXXXX XXXXXXXXXXXXXXXX
00C0 : XXXXXXXXXXXXXXXX XXXXXXXXXXXXXXXX XXXXXXXXXXXXXXXX XXXXXXXXXXXXXXXX
0100 : XXXXXXXXXXXXXXXX XXXXXXXXXXXXXXXX XXXXXXXXXXXXXXXX XXXXXXXXXXXXXXXX
0140 : XXXXXXXXXXXXXXXX XXXXXXXXXXXXXXXX XXXXXXXXXXXXXXXX XXXXXXXXXXXXXXXX
0180 : XXXXXXXXXXXXXXXX XXXXXXXXXXXXXXXX XXXXXXXXXXXXXXXX XXXXXXXXXXXXXXXX
01C0 : XXXXXXXXXXXXXXXX XXXXXXXXXXXXXXXX XXXXXXXXXXXXXXXX XXXXXXXXXXXXXXXX
0200 : XXXXXXXXXXXXXXXX XXXXXXXXXXXXXXXX XXXXXXXXXXXXXXXX XXXXXXXXXXXXXXXX
0240 : XXXXXXXXXXXXXXXX XXXXXXXXXXXXXXXX XXXXXXXXXXXXXXXX XXXXXXXXXXXXXXXX
0280 : XXXXXXXXXXXXXXXX XXXXXXXXXXXXXXXX XXXXXXXXXXXXXXXX XXXXXXXXXXXXXXXX
02C0 : XXXXXXXXXXXXXXXX XXXXXXXXXXXXXXXX XXXXXXXXXXXXXXXX XXXXXXXXXXXXXXXX
0300 : XXXXXXXXXXXXXXXX XXXXXXXXXXXXXXXX XXXXXXXXXXXXXXXX XXXXXXXXXXXXXXXX
0340 : XXXXXXXXXXXXXXXX XXXXXXXXXXXXXXXX XXXXXXXXXXXXXXXX XXXXXXXXXXXXXXXX
0380 : XXXXXXXXXXXXXXXX XXXXXXXXXXXXXXXX XXXXXXXXXXXXXXXX XXXXXXXXXXXXXXXX
03C0 : XXXXXXXXXXXXXXXX XXXXXXXXXXXXXXXX XXXXXXXXXXXXXXXX XXXXXXXXXXXXXXXX
0400 : XXXXXXXXXXXXXXXX XXXXXXXXXXXXXXXX XXXXXXXXXXXXXXXX XXXXXXXXXXXXXXXX
0440 : XXXXXXXXXXXXXXXX XXXXXXXXXXXXXXXX XXXXXXXXXXXXXXXX XXXXXXXXXXXXXXXX
0480 : XXXXXXXXXXXXXXXX XXXXXXXXXXXXXXXX XXXXXXXXXXXXXXXX XXXXXXXXXXXXXXXX
04C0 : XXXXXXXXXXXXXXXX XXXXXXXXXXXXXXXX XXXXXXXXXXXXXXXX XXXXXXXXXXXXXXXX
0500 : XXXXXXXXXXXXXXXX XXXXXXXXXXXXXXXX XXXXXXXXXXXXXXXX XXXXXXXXXXXXXXXX
0540 : XXXXXXXXXXXXXXXX XXXXXXXXXXXXXXXX XXXXXXXXXXXXXXXX XXXXXXXXXXXXXXXX
0580 : XXXXXXXXXXXXXXXX XXXXXXXXXXXXXXXX XXXXXXXXXXXXXXXX XXXXXXXXXXXXXXXX
05C0 : XXXXXXXXXXXXXXXX XXXXXXXXXXXXXXXX XXXXXXXXXXXXXXXX XXXXXXXXXXXXXXXX
0600 : XXXXXXXXXXXXXXXX XXXXXXXXXXXXXXXX XXXXXXXXXXXXXXXX XXXXXXXXXXXXXXXX
0640 : XXXXXXXXXXXXXXXX XXXXXXXXXXXXXXXX XXXXXXXXXXXXXXXX XXXXXXXXXXXXXXXX
0680 : XXXXXXXXXXXXXXXX XXXXXXXXXXXXXXXX ---------------- ----------------
0000 : -XXX-XX-XXXXXX-- ---------------- ---------------- ----------------

ALL OTHER MEMORY BLOCKS UNUSED.

PROGRAM MEMORY BYTES USED:  1703
PROGRAM MEMORY BYTES FREE: 14681


ERRORS   :     0
WARNINGS :     0 REPORTED,   452 SUPPRESSED
MESSAGES :     1 REPORTED,     1 SUPPRESSED


